; Listing generated by Microsoft (R) Optimizing Compiler Version 19.00.24213.1 

	TITLE	G:\DOOM\New Kingdom\Game Development [torrents.ru]\AI\Programming Game AI by Example\Buckland_AISource\Common\fuzzy\FuzzyOperators.cpp
	.686P
	.XMM
	include listing.inc
	.model	flat

INCLUDELIB LIBCMTD
INCLUDELIB OLDNAMES

PUBLIC	?__empty_global_delete@@YAXPAX@Z		; __empty_global_delete
PUBLIC	?__empty_global_delete@@YAXPAXI@Z		; __empty_global_delete
PUBLIC	?max@?$numeric_limits@H@std@@SAHXZ		; std::numeric_limits<int>::max
PUBLIC	?min@?$numeric_limits@M@std@@SAMXZ		; std::numeric_limits<float>::min
PUBLIC	?max@?$numeric_limits@M@std@@SAMXZ		; std::numeric_limits<float>::max
PUBLIC	?min@?$numeric_limits@N@std@@SANXZ		; std::numeric_limits<double>::min
PUBLIC	?max@?$numeric_limits@N@std@@SANXZ		; std::numeric_limits<double>::max
PUBLIC	??2@YAPAXIPAX@Z					; operator new
PUBLIC	??0_Container_proxy@std@@QAE@XZ			; std::_Container_proxy::_Container_proxy
PUBLIC	??0_Container_base12@std@@QAE@XZ		; std::_Container_base12::_Container_base12
PUBLIC	??1_Container_base12@std@@QAE@XZ		; std::_Container_base12::~_Container_base12
PUBLIC	?_Getpfirst@_Container_base12@std@@QBEPAPAU_Iterator_base12@2@XZ ; std::_Container_base12::_Getpfirst
PUBLIC	?_Orphan_all@_Container_base12@std@@QAEXXZ	; std::_Container_base12::_Orphan_all
PUBLIC	??0_Iterator_base12@std@@QAE@XZ			; std::_Iterator_base12::_Iterator_base12
PUBLIC	??4_Iterator_base12@std@@QAEAAU01@ABU01@@Z	; std::_Iterator_base12::operator=
PUBLIC	??1_Iterator_base12@std@@QAE@XZ			; std::_Iterator_base12::~_Iterator_base12
PUBLIC	?_Adopt@_Iterator_base12@std@@QAEXPBU_Container_base12@2@@Z ; std::_Iterator_base12::_Adopt
PUBLIC	?_Clrcont@_Iterator_base12@std@@QAEXXZ		; std::_Iterator_base12::_Clrcont
PUBLIC	?_Getcont@_Iterator_base12@std@@QBEPBU_Container_base12@2@XZ ; std::_Iterator_base12::_Getcont
PUBLIC	?_Getpnext@_Iterator_base12@std@@QAEPAPAU12@XZ	; std::_Iterator_base12::_Getpnext
PUBLIC	?_Orphan_me@_Iterator_base12@std@@QAEXXZ	; std::_Iterator_base12::_Orphan_me
PUBLIC	?_Allocate@std@@YAPAXII_N@Z			; std::_Allocate
PUBLIC	?_Deallocate@std@@YAXPAXII@Z			; std::_Deallocate
PUBLIC	??1FuzzyTerm@@UAE@XZ				; FuzzyTerm::~FuzzyTerm
PUBLIC	??0FuzzyTerm@@QAE@XZ				; FuzzyTerm::FuzzyTerm
PUBLIC	??_GFuzzyTerm@@UAEPAXI@Z			; FuzzyTerm::`scalar deleting destructor'
PUBLIC	??0?$allocator@PAVFuzzyTerm@@@std@@QAE@XZ	; std::allocator<FuzzyTerm *>::allocator<FuzzyTerm *>
PUBLIC	?deallocate@?$allocator@PAVFuzzyTerm@@@std@@QAEXPAPAVFuzzyTerm@@I@Z ; std::allocator<FuzzyTerm *>::deallocate
PUBLIC	?allocate@?$allocator@PAVFuzzyTerm@@@std@@QAEPAPAVFuzzyTerm@@I@Z ; std::allocator<FuzzyTerm *>::allocate
PUBLIC	?max_size@?$allocator@PAVFuzzyTerm@@@std@@QBEIXZ ; std::allocator<FuzzyTerm *>::max_size
PUBLIC	?max_size@?$allocator_traits@V?$allocator@PAVFuzzyTerm@@@std@@@std@@SAIABV?$allocator@PAVFuzzyTerm@@@2@@Z ; std::allocator_traits<std::allocator<FuzzyTerm *> >::max_size
PUBLIC	??0?$_Wrap_alloc@V?$allocator@PAVFuzzyTerm@@@std@@@std@@QAE@XZ ; std::_Wrap_alloc<std::allocator<FuzzyTerm *> >::_Wrap_alloc<std::allocator<FuzzyTerm *> >
PUBLIC	?allocate@?$_Wrap_alloc@V?$allocator@PAVFuzzyTerm@@@std@@@std@@QAEPAPAVFuzzyTerm@@I@Z ; std::_Wrap_alloc<std::allocator<FuzzyTerm *> >::allocate
PUBLIC	?deallocate@?$_Wrap_alloc@V?$allocator@PAVFuzzyTerm@@@std@@@std@@QAEXPAPAVFuzzyTerm@@I@Z ; std::_Wrap_alloc<std::allocator<FuzzyTerm *> >::deallocate
PUBLIC	?max_size@?$_Wrap_alloc@V?$allocator@PAVFuzzyTerm@@@std@@@std@@QBEIU_Nil@2@@Z ; std::_Wrap_alloc<std::allocator<FuzzyTerm *> >::max_size
PUBLIC	??0?$_Vector_alloc@U?$_Vec_base_types@PAVFuzzyTerm@@V?$allocator@PAVFuzzyTerm@@@std@@@std@@@std@@QAE@XZ ; std::_Vector_alloc<std::_Vec_base_types<FuzzyTerm *,std::allocator<FuzzyTerm *> > >::_Vector_alloc<std::_Vec_base_types<FuzzyTerm *,std::allocator<FuzzyTerm *> > >
PUBLIC	??1?$_Vector_alloc@U?$_Vec_base_types@PAVFuzzyTerm@@V?$allocator@PAVFuzzyTerm@@@std@@@std@@@std@@QAE@XZ ; std::_Vector_alloc<std::_Vec_base_types<FuzzyTerm *,std::allocator<FuzzyTerm *> > >::~_Vector_alloc<std::_Vec_base_types<FuzzyTerm *,std::allocator<FuzzyTerm *> > >
PUBLIC	?_Alloc_proxy@?$_Vector_alloc@U?$_Vec_base_types@PAVFuzzyTerm@@V?$allocator@PAVFuzzyTerm@@@std@@@std@@@std@@QAEXXZ ; std::_Vector_alloc<std::_Vec_base_types<FuzzyTerm *,std::allocator<FuzzyTerm *> > >::_Alloc_proxy
PUBLIC	?_Free_proxy@?$_Vector_alloc@U?$_Vec_base_types@PAVFuzzyTerm@@V?$allocator@PAVFuzzyTerm@@@std@@@std@@@std@@QAEXXZ ; std::_Vector_alloc<std::_Vec_base_types<FuzzyTerm *,std::allocator<FuzzyTerm *> > >::_Free_proxy
PUBLIC	?_Getpfirst@?$_Vector_alloc@U?$_Vec_base_types@PAVFuzzyTerm@@V?$allocator@PAVFuzzyTerm@@@std@@@std@@@std@@QBEPAPAU_Iterator_base12@2@XZ ; std::_Vector_alloc<std::_Vec_base_types<FuzzyTerm *,std::allocator<FuzzyTerm *> > >::_Getpfirst
PUBLIC	?_Myproxy@?$_Vector_alloc@U?$_Vec_base_types@PAVFuzzyTerm@@V?$allocator@PAVFuzzyTerm@@@std@@@std@@@std@@QAEAAPAU_Container_proxy@2@XZ ; std::_Vector_alloc<std::_Vec_base_types<FuzzyTerm *,std::allocator<FuzzyTerm *> > >::_Myproxy
PUBLIC	?_Orphan_all@?$_Vector_alloc@U?$_Vec_base_types@PAVFuzzyTerm@@V?$allocator@PAVFuzzyTerm@@@std@@@std@@@std@@QAEXXZ ; std::_Vector_alloc<std::_Vec_base_types<FuzzyTerm *,std::allocator<FuzzyTerm *> > >::_Orphan_all
PUBLIC	?_Getal@?$_Vector_alloc@U?$_Vec_base_types@PAVFuzzyTerm@@V?$allocator@PAVFuzzyTerm@@@std@@@std@@@std@@QAEAAU?$_Wrap_alloc@V?$allocator@PAVFuzzyTerm@@@std@@@2@XZ ; std::_Vector_alloc<std::_Vec_base_types<FuzzyTerm *,std::allocator<FuzzyTerm *> > >::_Getal
PUBLIC	?_Getal@?$_Vector_alloc@U?$_Vec_base_types@PAVFuzzyTerm@@V?$allocator@PAVFuzzyTerm@@@std@@@std@@@std@@QBEABU?$_Wrap_alloc@V?$allocator@PAVFuzzyTerm@@@std@@@2@XZ ; std::_Vector_alloc<std::_Vec_base_types<FuzzyTerm *,std::allocator<FuzzyTerm *> > >::_Getal
PUBLIC	?_Get_data@?$_Vector_alloc@U?$_Vec_base_types@PAVFuzzyTerm@@V?$allocator@PAVFuzzyTerm@@@std@@@std@@@std@@QAEAAV?$_Vector_val@U?$_Simple_types@PAVFuzzyTerm@@@std@@@2@XZ ; std::_Vector_alloc<std::_Vec_base_types<FuzzyTerm *,std::allocator<FuzzyTerm *> > >::_Get_data
PUBLIC	?_Get_data@?$_Vector_alloc@U?$_Vec_base_types@PAVFuzzyTerm@@V?$allocator@PAVFuzzyTerm@@@std@@@std@@@std@@QBEABV?$_Vector_val@U?$_Simple_types@PAVFuzzyTerm@@@std@@@2@XZ ; std::_Vector_alloc<std::_Vec_base_types<FuzzyTerm *,std::allocator<FuzzyTerm *> > >::_Get_data
PUBLIC	?_Myfirst@?$_Vector_alloc@U?$_Vec_base_types@PAVFuzzyTerm@@V?$allocator@PAVFuzzyTerm@@@std@@@std@@@std@@QAEAAPAPAVFuzzyTerm@@XZ ; std::_Vector_alloc<std::_Vec_base_types<FuzzyTerm *,std::allocator<FuzzyTerm *> > >::_Myfirst
PUBLIC	?_Myfirst@?$_Vector_alloc@U?$_Vec_base_types@PAVFuzzyTerm@@V?$allocator@PAVFuzzyTerm@@@std@@@std@@@std@@QBEABQAPAVFuzzyTerm@@XZ ; std::_Vector_alloc<std::_Vec_base_types<FuzzyTerm *,std::allocator<FuzzyTerm *> > >::_Myfirst
PUBLIC	?_Mylast@?$_Vector_alloc@U?$_Vec_base_types@PAVFuzzyTerm@@V?$allocator@PAVFuzzyTerm@@@std@@@std@@@std@@QAEAAPAPAVFuzzyTerm@@XZ ; std::_Vector_alloc<std::_Vec_base_types<FuzzyTerm *,std::allocator<FuzzyTerm *> > >::_Mylast
PUBLIC	?_Mylast@?$_Vector_alloc@U?$_Vec_base_types@PAVFuzzyTerm@@V?$allocator@PAVFuzzyTerm@@@std@@@std@@@std@@QBEABQAPAVFuzzyTerm@@XZ ; std::_Vector_alloc<std::_Vec_base_types<FuzzyTerm *,std::allocator<FuzzyTerm *> > >::_Mylast
PUBLIC	?_Myend@?$_Vector_alloc@U?$_Vec_base_types@PAVFuzzyTerm@@V?$allocator@PAVFuzzyTerm@@@std@@@std@@@std@@QAEAAPAPAVFuzzyTerm@@XZ ; std::_Vector_alloc<std::_Vec_base_types<FuzzyTerm *,std::allocator<FuzzyTerm *> > >::_Myend
PUBLIC	?_Myend@?$_Vector_alloc@U?$_Vec_base_types@PAVFuzzyTerm@@V?$allocator@PAVFuzzyTerm@@@std@@@std@@@std@@QBEABQAPAVFuzzyTerm@@XZ ; std::_Vector_alloc<std::_Vec_base_types<FuzzyTerm *,std::allocator<FuzzyTerm *> > >::_Myend
PUBLIC	??0?$_Vector_val@U?$_Simple_types@PAVFuzzyTerm@@@std@@@std@@QAE@XZ ; std::_Vector_val<std::_Simple_types<FuzzyTerm *> >::_Vector_val<std::_Simple_types<FuzzyTerm *> >
PUBLIC	??1?$_Vector_val@U?$_Simple_types@PAVFuzzyTerm@@@std@@@std@@QAE@XZ ; std::_Vector_val<std::_Simple_types<FuzzyTerm *> >::~_Vector_val<std::_Simple_types<FuzzyTerm *> >
PUBLIC	?_Get_first@?$_Compressed_pair@U?$_Wrap_alloc@V?$allocator@PAVFuzzyTerm@@@std@@@std@@V?$_Vector_val@U?$_Simple_types@PAVFuzzyTerm@@@std@@@2@$00@std@@QAEAAU?$_Wrap_alloc@V?$allocator@PAVFuzzyTerm@@@std@@@2@XZ ; std::_Compressed_pair<std::_Wrap_alloc<std::allocator<FuzzyTerm *> >,std::_Vector_val<std::_Simple_types<FuzzyTerm *> >,1>::_Get_first
PUBLIC	?_Get_first@?$_Compressed_pair@U?$_Wrap_alloc@V?$allocator@PAVFuzzyTerm@@@std@@@std@@V?$_Vector_val@U?$_Simple_types@PAVFuzzyTerm@@@std@@@2@$00@std@@QBEABU?$_Wrap_alloc@V?$allocator@PAVFuzzyTerm@@@std@@@2@XZ ; std::_Compressed_pair<std::_Wrap_alloc<std::allocator<FuzzyTerm *> >,std::_Vector_val<std::_Simple_types<FuzzyTerm *> >,1>::_Get_first
PUBLIC	?_Get_second@?$_Compressed_pair@U?$_Wrap_alloc@V?$allocator@PAVFuzzyTerm@@@std@@@std@@V?$_Vector_val@U?$_Simple_types@PAVFuzzyTerm@@@std@@@2@$00@std@@QAEAAV?$_Vector_val@U?$_Simple_types@PAVFuzzyTerm@@@std@@@2@XZ ; std::_Compressed_pair<std::_Wrap_alloc<std::allocator<FuzzyTerm *> >,std::_Vector_val<std::_Simple_types<FuzzyTerm *> >,1>::_Get_second
PUBLIC	?_Get_second@?$_Compressed_pair@U?$_Wrap_alloc@V?$allocator@PAVFuzzyTerm@@@std@@@std@@V?$_Vector_val@U?$_Simple_types@PAVFuzzyTerm@@@std@@@2@$00@std@@QBEABV?$_Vector_val@U?$_Simple_types@PAVFuzzyTerm@@@std@@@2@XZ ; std::_Compressed_pair<std::_Wrap_alloc<std::allocator<FuzzyTerm *> >,std::_Vector_val<std::_Simple_types<FuzzyTerm *> >,1>::_Get_second
PUBLIC	??1?$_Compressed_pair@U?$_Wrap_alloc@V?$allocator@PAVFuzzyTerm@@@std@@@std@@V?$_Vector_val@U?$_Simple_types@PAVFuzzyTerm@@@std@@@2@$00@std@@QAE@XZ ; std::_Compressed_pair<std::_Wrap_alloc<std::allocator<FuzzyTerm *> >,std::_Vector_val<std::_Simple_types<FuzzyTerm *> >,1>::~_Compressed_pair<std::_Wrap_alloc<std::allocator<FuzzyTerm *> >,std::_Vector_val<std::_Simple_types<FuzzyTerm *> >,1>
PUBLIC	??0?$vector@PAVFuzzyTerm@@V?$allocator@PAVFuzzyTerm@@@std@@@std@@QAE@XZ ; std::vector<FuzzyTerm *,std::allocator<FuzzyTerm *> >::vector<FuzzyTerm *,std::allocator<FuzzyTerm *> >
PUBLIC	?push_back@?$vector@PAVFuzzyTerm@@V?$allocator@PAVFuzzyTerm@@@std@@@std@@QAEX$$QAPAVFuzzyTerm@@@Z ; std::vector<FuzzyTerm *,std::allocator<FuzzyTerm *> >::push_back
PUBLIC	??1?$vector@PAVFuzzyTerm@@V?$allocator@PAVFuzzyTerm@@@std@@@std@@QAE@XZ ; std::vector<FuzzyTerm *,std::allocator<FuzzyTerm *> >::~vector<FuzzyTerm *,std::allocator<FuzzyTerm *> >
PUBLIC	?capacity@?$vector@PAVFuzzyTerm@@V?$allocator@PAVFuzzyTerm@@@std@@@std@@QBEIXZ ; std::vector<FuzzyTerm *,std::allocator<FuzzyTerm *> >::capacity
PUBLIC	?_Unused_capacity@?$vector@PAVFuzzyTerm@@V?$allocator@PAVFuzzyTerm@@@std@@@std@@QBEIXZ ; std::vector<FuzzyTerm *,std::allocator<FuzzyTerm *> >::_Unused_capacity
PUBLIC	?begin@?$vector@PAVFuzzyTerm@@V?$allocator@PAVFuzzyTerm@@@std@@@std@@QAE?AV?$_Vector_iterator@V?$_Vector_val@U?$_Simple_types@PAVFuzzyTerm@@@std@@@std@@@2@XZ ; std::vector<FuzzyTerm *,std::allocator<FuzzyTerm *> >::begin
PUBLIC	?begin@?$vector@PAVFuzzyTerm@@V?$allocator@PAVFuzzyTerm@@@std@@@std@@QBE?AV?$_Vector_const_iterator@V?$_Vector_val@U?$_Simple_types@PAVFuzzyTerm@@@std@@@std@@@2@XZ ; std::vector<FuzzyTerm *,std::allocator<FuzzyTerm *> >::begin
PUBLIC	?end@?$vector@PAVFuzzyTerm@@V?$allocator@PAVFuzzyTerm@@@std@@@std@@QAE?AV?$_Vector_iterator@V?$_Vector_val@U?$_Simple_types@PAVFuzzyTerm@@@std@@@std@@@2@XZ ; std::vector<FuzzyTerm *,std::allocator<FuzzyTerm *> >::end
PUBLIC	?end@?$vector@PAVFuzzyTerm@@V?$allocator@PAVFuzzyTerm@@@std@@@std@@QBE?AV?$_Vector_const_iterator@V?$_Vector_val@U?$_Simple_types@PAVFuzzyTerm@@@std@@@std@@@2@XZ ; std::vector<FuzzyTerm *,std::allocator<FuzzyTerm *> >::end
PUBLIC	?size@?$vector@PAVFuzzyTerm@@V?$allocator@PAVFuzzyTerm@@@std@@@std@@QBEIXZ ; std::vector<FuzzyTerm *,std::allocator<FuzzyTerm *> >::size
PUBLIC	?max_size@?$vector@PAVFuzzyTerm@@V?$allocator@PAVFuzzyTerm@@@std@@@std@@QBEIXZ ; std::vector<FuzzyTerm *,std::allocator<FuzzyTerm *> >::max_size
PUBLIC	?_Destroy@?$vector@PAVFuzzyTerm@@V?$allocator@PAVFuzzyTerm@@@std@@@std@@IAEXPAPAVFuzzyTerm@@0@Z ; std::vector<FuzzyTerm *,std::allocator<FuzzyTerm *> >::_Destroy
PUBLIC	?_Grow_to@?$vector@PAVFuzzyTerm@@V?$allocator@PAVFuzzyTerm@@@std@@@std@@IBEII@Z ; std::vector<FuzzyTerm *,std::allocator<FuzzyTerm *> >::_Grow_to
PUBLIC	?_Inside@?$vector@PAVFuzzyTerm@@V?$allocator@PAVFuzzyTerm@@@std@@@std@@IBE_NPBQAVFuzzyTerm@@@Z ; std::vector<FuzzyTerm *,std::allocator<FuzzyTerm *> >::_Inside
PUBLIC	?_Reallocate@?$vector@PAVFuzzyTerm@@V?$allocator@PAVFuzzyTerm@@@std@@@std@@IAEXI@Z ; std::vector<FuzzyTerm *,std::allocator<FuzzyTerm *> >::_Reallocate
PUBLIC	?_Reserve@?$vector@PAVFuzzyTerm@@V?$allocator@PAVFuzzyTerm@@@std@@@std@@IAEXI@Z ; std::vector<FuzzyTerm *,std::allocator<FuzzyTerm *> >::_Reserve
PUBLIC	?_Tidy@?$vector@PAVFuzzyTerm@@V?$allocator@PAVFuzzyTerm@@@std@@@std@@IAEXXZ ; std::vector<FuzzyTerm *,std::allocator<FuzzyTerm *> >::_Tidy
PUBLIC	?_Xlen@?$vector@PAVFuzzyTerm@@V?$allocator@PAVFuzzyTerm@@@std@@@std@@IBEXXZ ; std::vector<FuzzyTerm *,std::allocator<FuzzyTerm *> >::_Xlen
PUBLIC	?_Orphan_range@?$vector@PAVFuzzyTerm@@V?$allocator@PAVFuzzyTerm@@@std@@@std@@IBEXPAPAVFuzzyTerm@@0@Z ; std::vector<FuzzyTerm *,std::allocator<FuzzyTerm *> >::_Orphan_range
PUBLIC	??1FzAND@@UAE@XZ				; FzAND::~FzAND
PUBLIC	??0FzAND@@QAE@ABV0@@Z				; FzAND::FzAND
PUBLIC	??0FzAND@@QAE@AAVFuzzyTerm@@0@Z			; FzAND::FzAND
PUBLIC	??0FzAND@@QAE@AAVFuzzyTerm@@00@Z		; FzAND::FzAND
PUBLIC	??0FzAND@@QAE@AAVFuzzyTerm@@000@Z		; FzAND::FzAND
PUBLIC	?Clone@FzAND@@UBEPAVFuzzyTerm@@XZ		; FzAND::Clone
PUBLIC	?GetDOM@FzAND@@UBENXZ				; FzAND::GetDOM
PUBLIC	?ClearDOM@FzAND@@UAEXXZ				; FzAND::ClearDOM
PUBLIC	?ORwithDOM@FzAND@@UAEXN@Z			; FzAND::ORwithDOM
PUBLIC	??_GFzAND@@UAEPAXI@Z				; FzAND::`scalar deleting destructor'
PUBLIC	??1FzOR@@UAE@XZ					; FzOR::~FzOR
PUBLIC	??0FzOR@@QAE@ABV0@@Z				; FzOR::FzOR
PUBLIC	??0FzOR@@QAE@AAVFuzzyTerm@@0@Z			; FzOR::FzOR
PUBLIC	??0FzOR@@QAE@AAVFuzzyTerm@@00@Z			; FzOR::FzOR
PUBLIC	??0FzOR@@QAE@AAVFuzzyTerm@@000@Z		; FzOR::FzOR
PUBLIC	?Clone@FzOR@@UBEPAVFuzzyTerm@@XZ		; FzOR::Clone
PUBLIC	?GetDOM@FzOR@@UBENXZ				; FzOR::GetDOM
PUBLIC	?ClearDOM@FzOR@@UAEXXZ				; FzOR::ClearDOM
PUBLIC	?ORwithDOM@FzOR@@UAEXN@Z			; FzOR::ORwithDOM
PUBLIC	??_GFzOR@@UAEPAXI@Z				; FzOR::`scalar deleting destructor'
PUBLIC	??0?$_Iterator012@Urandom_access_iterator_tag@std@@PAVFuzzyTerm@@HPBQAV3@ABQAV3@U_Iterator_base12@2@@std@@QAE@XZ ; std::_Iterator012<std::random_access_iterator_tag,FuzzyTerm *,int,FuzzyTerm * const *,FuzzyTerm * const &,std::_Iterator_base12>::_Iterator012<std::random_access_iterator_tag,FuzzyTerm *,int,FuzzyTerm * const *,FuzzyTerm * const &,std::_Iterator_base12>
PUBLIC	??1?$_Iterator012@Urandom_access_iterator_tag@std@@PAVFuzzyTerm@@HPBQAV3@ABQAV3@U_Iterator_base12@2@@std@@QAE@XZ ; std::_Iterator012<std::random_access_iterator_tag,FuzzyTerm *,int,FuzzyTerm * const *,FuzzyTerm * const &,std::_Iterator_base12>::~_Iterator012<std::random_access_iterator_tag,FuzzyTerm *,int,FuzzyTerm * const *,FuzzyTerm * const &,std::_Iterator_base12>
PUBLIC	??4?$_Iterator012@Urandom_access_iterator_tag@std@@PAVFuzzyTerm@@HPBQAV3@ABQAV3@U_Iterator_base12@2@@std@@QAEAAU01@$$QAU01@@Z ; std::_Iterator012<std::random_access_iterator_tag,FuzzyTerm *,int,FuzzyTerm * const *,FuzzyTerm * const &,std::_Iterator_base12>::operator=
PUBLIC	??0?$_Vector_const_iterator@V?$_Vector_val@U?$_Simple_types@PAVFuzzyTerm@@@std@@@std@@@std@@QAE@XZ ; std::_Vector_const_iterator<std::_Vector_val<std::_Simple_types<FuzzyTerm *> > >::_Vector_const_iterator<std::_Vector_val<std::_Simple_types<FuzzyTerm *> > >
PUBLIC	??0?$_Vector_const_iterator@V?$_Vector_val@U?$_Simple_types@PAVFuzzyTerm@@@std@@@std@@@std@@QAE@PAPAVFuzzyTerm@@PBU_Container_base12@1@@Z ; std::_Vector_const_iterator<std::_Vector_val<std::_Simple_types<FuzzyTerm *> > >::_Vector_const_iterator<std::_Vector_val<std::_Simple_types<FuzzyTerm *> > >
PUBLIC	??D?$_Vector_const_iterator@V?$_Vector_val@U?$_Simple_types@PAVFuzzyTerm@@@std@@@std@@@std@@QBEABQAVFuzzyTerm@@XZ ; std::_Vector_const_iterator<std::_Vector_val<std::_Simple_types<FuzzyTerm *> > >::operator*
PUBLIC	??E?$_Vector_const_iterator@V?$_Vector_val@U?$_Simple_types@PAVFuzzyTerm@@@std@@@std@@@std@@QAEAAV01@XZ ; std::_Vector_const_iterator<std::_Vector_val<std::_Simple_types<FuzzyTerm *> > >::operator++
PUBLIC	??8?$_Vector_const_iterator@V?$_Vector_val@U?$_Simple_types@PAVFuzzyTerm@@@std@@@std@@@std@@QBE_NABV01@@Z ; std::_Vector_const_iterator<std::_Vector_val<std::_Simple_types<FuzzyTerm *> > >::operator==
PUBLIC	??9?$_Vector_const_iterator@V?$_Vector_val@U?$_Simple_types@PAVFuzzyTerm@@@std@@@std@@@std@@QBE_NABV01@@Z ; std::_Vector_const_iterator<std::_Vector_val<std::_Simple_types<FuzzyTerm *> > >::operator!=
PUBLIC	?_Compat@?$_Vector_const_iterator@V?$_Vector_val@U?$_Simple_types@PAVFuzzyTerm@@@std@@@std@@@std@@QBEXABV12@@Z ; std::_Vector_const_iterator<std::_Vector_val<std::_Simple_types<FuzzyTerm *> > >::_Compat
PUBLIC	??1?$_Vector_const_iterator@V?$_Vector_val@U?$_Simple_types@PAVFuzzyTerm@@@std@@@std@@@std@@QAE@XZ ; std::_Vector_const_iterator<std::_Vector_val<std::_Simple_types<FuzzyTerm *> > >::~_Vector_const_iterator<std::_Vector_val<std::_Simple_types<FuzzyTerm *> > >
PUBLIC	??4?$_Vector_const_iterator@V?$_Vector_val@U?$_Simple_types@PAVFuzzyTerm@@@std@@@std@@@std@@QAEAAV01@$$QAV01@@Z ; std::_Vector_const_iterator<std::_Vector_val<std::_Simple_types<FuzzyTerm *> > >::operator=
PUBLIC	??0?$_Vector_iterator@V?$_Vector_val@U?$_Simple_types@PAVFuzzyTerm@@@std@@@std@@@std@@QAE@XZ ; std::_Vector_iterator<std::_Vector_val<std::_Simple_types<FuzzyTerm *> > >::_Vector_iterator<std::_Vector_val<std::_Simple_types<FuzzyTerm *> > >
PUBLIC	??0?$_Vector_iterator@V?$_Vector_val@U?$_Simple_types@PAVFuzzyTerm@@@std@@@std@@@std@@QAE@PAPAVFuzzyTerm@@PBU_Container_base12@1@@Z ; std::_Vector_iterator<std::_Vector_val<std::_Simple_types<FuzzyTerm *> > >::_Vector_iterator<std::_Vector_val<std::_Simple_types<FuzzyTerm *> > >
PUBLIC	??D?$_Vector_iterator@V?$_Vector_val@U?$_Simple_types@PAVFuzzyTerm@@@std@@@std@@@std@@QBEAAPAVFuzzyTerm@@XZ ; std::_Vector_iterator<std::_Vector_val<std::_Simple_types<FuzzyTerm *> > >::operator*
PUBLIC	??E?$_Vector_iterator@V?$_Vector_val@U?$_Simple_types@PAVFuzzyTerm@@@std@@@std@@@std@@QAEAAV01@XZ ; std::_Vector_iterator<std::_Vector_val<std::_Simple_types<FuzzyTerm *> > >::operator++
PUBLIC	??1?$_Vector_iterator@V?$_Vector_val@U?$_Simple_types@PAVFuzzyTerm@@@std@@@std@@@std@@QAE@XZ ; std::_Vector_iterator<std::_Vector_val<std::_Simple_types<FuzzyTerm *> > >::~_Vector_iterator<std::_Vector_val<std::_Simple_types<FuzzyTerm *> > >
PUBLIC	??4?$_Vector_iterator@V?$_Vector_val@U?$_Simple_types@PAVFuzzyTerm@@@std@@@std@@@std@@QAEAAV01@$$QAV01@@Z ; std::_Vector_iterator<std::_Vector_val<std::_Simple_types<FuzzyTerm *> > >::operator=
PUBLIC	??$addressof@PAVFuzzyTerm@@@std@@YAPAPAVFuzzyTerm@@AAPAV1@@Z ; std::addressof<FuzzyTerm *>
PUBLIC	??$_Unfancy@PAVFuzzyTerm@@@std@@YAPAPAVFuzzyTerm@@PAPAV1@@Z ; std::_Unfancy<FuzzyTerm *>
PUBLIC	??$forward@PAVFuzzyTerm@@@std@@YA$$QAPAVFuzzyTerm@@AAPAV1@@Z ; std::forward<FuzzyTerm *>
PUBLIC	??$construct@PAVFuzzyTerm@@PAV1@@?$_Wrap_alloc@V?$allocator@PAVFuzzyTerm@@@std@@@std@@QAEXPAPAVFuzzyTerm@@$$QAPAV2@@Z ; std::_Wrap_alloc<std::allocator<FuzzyTerm *> >::construct<FuzzyTerm *,FuzzyTerm *>
PUBLIC	??$?0$$V@?$_Compressed_pair@U?$_Wrap_alloc@V?$allocator@PAVFuzzyTerm@@@std@@@std@@V?$_Vector_val@U?$_Simple_types@PAVFuzzyTerm@@@std@@@2@$00@std@@QAE@U_Zero_then_variadic_args_t@1@@Z ; std::_Compressed_pair<std::_Wrap_alloc<std::allocator<FuzzyTerm *> >,std::_Vector_val<std::_Simple_types<FuzzyTerm *> >,1>::_Compressed_pair<std::_Wrap_alloc<std::allocator<FuzzyTerm *> >,std::_Vector_val<std::_Simple_types<FuzzyTerm *> >,1><>
PUBLIC	?deallocate@?$allocator@U_Container_proxy@std@@@std@@QAEXPAU_Container_proxy@2@I@Z ; std::allocator<std::_Container_proxy>::deallocate
PUBLIC	?allocate@?$allocator@U_Container_proxy@std@@@std@@QAEPAU_Container_proxy@2@I@Z ; std::allocator<std::_Container_proxy>::allocate
PUBLIC	?address@?$_Wrap_alloc@V?$allocator@U_Container_proxy@std@@@std@@@std@@QBEPAU_Container_proxy@2@AAU32@@Z ; std::_Wrap_alloc<std::allocator<std::_Container_proxy> >::address
PUBLIC	?allocate@?$_Wrap_alloc@V?$allocator@U_Container_proxy@std@@@std@@@std@@QAEPAU_Container_proxy@2@I@Z ; std::_Wrap_alloc<std::allocator<std::_Container_proxy> >::allocate
PUBLIC	?deallocate@?$_Wrap_alloc@V?$allocator@U_Container_proxy@std@@@std@@@std@@QAEXPAU_Container_proxy@2@I@Z ; std::_Wrap_alloc<std::allocator<std::_Container_proxy> >::deallocate
PUBLIC	??$?0AAU?$_Wrap_alloc@V?$allocator@PAVFuzzyTerm@@@std@@@std@@@?$_Wrap_alloc@V?$allocator@U_Container_proxy@std@@@std@@@std@@QAE@AAU?$_Wrap_alloc@V?$allocator@PAVFuzzyTerm@@@std@@@1@@Z ; std::_Wrap_alloc<std::allocator<std::_Container_proxy> >::_Wrap_alloc<std::allocator<std::_Container_proxy> ><std::_Wrap_alloc<std::allocator<FuzzyTerm *> > &>
PUBLIC	??$destroy@U_Container_proxy@std@@@?$_Wrap_alloc@V?$allocator@U_Container_proxy@std@@@std@@@std@@QAEXPAU_Container_proxy@1@@Z ; std::_Wrap_alloc<std::allocator<std::_Container_proxy> >::destroy<std::_Container_proxy>
PUBLIC	??$_Unfancy@U_Container_proxy@std@@@std@@YAPAU_Container_proxy@0@PAU10@@Z ; std::_Unfancy<std::_Container_proxy>
PUBLIC	??$construct@U_Container_proxy@std@@U12@@?$_Wrap_alloc@V?$allocator@U_Container_proxy@std@@@std@@@std@@QAEXPAU_Container_proxy@1@$$QAU21@@Z ; std::_Wrap_alloc<std::allocator<std::_Container_proxy> >::construct<std::_Container_proxy,std::_Container_proxy>
PUBLIC	??$_Umove@PAPAVFuzzyTerm@@@?$vector@PAVFuzzyTerm@@V?$allocator@PAVFuzzyTerm@@@std@@@std@@IAEPAPAVFuzzyTerm@@PAPAV2@00@Z ; std::vector<FuzzyTerm *,std::allocator<FuzzyTerm *> >::_Umove<FuzzyTerm * *>
PUBLIC	??$_Destroy_range@V?$allocator@PAVFuzzyTerm@@@std@@PAPAVFuzzyTerm@@@std@@YAXPAPAVFuzzyTerm@@0AAU?$_Wrap_alloc@V?$allocator@PAVFuzzyTerm@@@std@@@0@@Z ; std::_Destroy_range<std::allocator<FuzzyTerm *>,FuzzyTerm * *>
PUBLIC	?pointer_to@?$pointer_traits@PAU_Container_proxy@std@@@std@@SAPAU_Container_proxy@2@AAU32@@Z ; std::pointer_traits<std::_Container_proxy *>::pointer_to
PUBLIC	??$addressof@U_Container_proxy@std@@@std@@YAPAU_Container_proxy@0@AAU10@@Z ; std::addressof<std::_Container_proxy>
PUBLIC	??$construct@PAVFuzzyTerm@@PAV1@@?$allocator_traits@V?$allocator@PAVFuzzyTerm@@@std@@@std@@SAXAAV?$allocator@PAVFuzzyTerm@@@1@PAPAVFuzzyTerm@@$$QAPAV3@@Z ; std::allocator_traits<std::allocator<FuzzyTerm *> >::construct<FuzzyTerm *,FuzzyTerm *>
PUBLIC	??$forward@AAU?$_Wrap_alloc@V?$allocator@PAVFuzzyTerm@@@std@@@std@@@std@@YAAAU?$_Wrap_alloc@V?$allocator@PAVFuzzyTerm@@@std@@@0@AAU10@@Z ; std::forward<std::_Wrap_alloc<std::allocator<FuzzyTerm *> > &>
PUBLIC	??$?0PAVFuzzyTerm@@@?$allocator@U_Container_proxy@std@@@std@@QAE@ABV?$allocator@PAVFuzzyTerm@@@1@@Z ; std::allocator<std::_Container_proxy>::allocator<std::_Container_proxy><FuzzyTerm *>
PUBLIC	??$destroy@U_Container_proxy@std@@@?$allocator_traits@V?$allocator@U_Container_proxy@std@@@std@@@std@@SAXAAV?$allocator@U_Container_proxy@std@@@1@PAU_Container_proxy@1@@Z ; std::allocator_traits<std::allocator<std::_Container_proxy> >::destroy<std::_Container_proxy>
PUBLIC	??$forward@U_Container_proxy@std@@@std@@YA$$QAU_Container_proxy@0@AAU10@@Z ; std::forward<std::_Container_proxy>
PUBLIC	??$construct@U_Container_proxy@std@@U12@@?$allocator_traits@V?$allocator@U_Container_proxy@std@@@std@@@std@@SAXAAV?$allocator@U_Container_proxy@std@@@1@PAU_Container_proxy@1@$$QAU31@@Z ; std::allocator_traits<std::allocator<std::_Container_proxy> >::construct<std::_Container_proxy,std::_Container_proxy>
PUBLIC	??$_Uninitialized_move@PAPAVFuzzyTerm@@PAPAV1@V?$allocator@PAVFuzzyTerm@@@std@@@std@@YAPAPAVFuzzyTerm@@PAPAV1@00AAU?$_Wrap_alloc@V?$allocator@PAVFuzzyTerm@@@std@@@0@@Z ; std::_Uninitialized_move<FuzzyTerm * *,FuzzyTerm * *,std::allocator<FuzzyTerm *> >
PUBLIC	??$_Destroy_range1@V?$allocator@PAVFuzzyTerm@@@std@@PAPAVFuzzyTerm@@@std@@YAXPAPAVFuzzyTerm@@0AAU?$_Wrap_alloc@V?$allocator@PAVFuzzyTerm@@@std@@@0@U?$integral_constant@_N$00@0@@Z ; std::_Destroy_range1<std::allocator<FuzzyTerm *>,FuzzyTerm * *>
PUBLIC	??$construct@PAVFuzzyTerm@@PAV1@@?$allocator@PAVFuzzyTerm@@@std@@QAEXPAPAVFuzzyTerm@@$$QAPAV2@@Z ; std::allocator<FuzzyTerm *>::construct<FuzzyTerm *,FuzzyTerm *>
PUBLIC	??$destroy@U_Container_proxy@std@@@?$allocator@U_Container_proxy@std@@@std@@QAEXPAU_Container_proxy@1@@Z ; std::allocator<std::_Container_proxy>::destroy<std::_Container_proxy>
PUBLIC	??$construct@U_Container_proxy@std@@U12@@?$allocator@U_Container_proxy@std@@@std@@QAEXPAU_Container_proxy@1@$$QAU21@@Z ; std::allocator<std::_Container_proxy>::construct<std::_Container_proxy,std::_Container_proxy>
PUBLIC	??$_Unchecked@PAPAVFuzzyTerm@@@std@@YAPAPAVFuzzyTerm@@PAPAV1@@Z ; std::_Unchecked<FuzzyTerm * *>
PUBLIC	??$_Uninitialized_move_al_unchecked@PAPAVFuzzyTerm@@PAPAV1@V?$allocator@PAVFuzzyTerm@@@std@@@std@@YAPAPAVFuzzyTerm@@PAPAV1@00AAU?$_Wrap_alloc@V?$allocator@PAVFuzzyTerm@@@std@@@0@@Z ; std::_Uninitialized_move_al_unchecked<FuzzyTerm * *,FuzzyTerm * *,std::allocator<FuzzyTerm *> >
PUBLIC	??$_Rechecked@PAPAVFuzzyTerm@@PAPAV1@@std@@YAAAPAPAVFuzzyTerm@@AAPAPAV1@PAPAV1@@Z ; std::_Rechecked<FuzzyTerm * *,FuzzyTerm * *>
PUBLIC	??$_Ptr_move_cat@PAVFuzzyTerm@@PAV1@@std@@YA?AU_Really_trivial_ptr_iterator_tag@0@ABQAPAVFuzzyTerm@@0@Z ; std::_Ptr_move_cat<FuzzyTerm *,FuzzyTerm *>
PUBLIC	??$_Uninitialized_move_al_unchecked1@PAVFuzzyTerm@@PAV1@V?$allocator@PAVFuzzyTerm@@@std@@@std@@YAPAPAVFuzzyTerm@@PAPAV1@00AAU?$_Wrap_alloc@V?$allocator@PAVFuzzyTerm@@@std@@@0@U_Really_trivial_ptr_iterator_tag@0@U?$integral_constant@_N$00@0@@Z ; std::_Uninitialized_move_al_unchecked1<FuzzyTerm *,FuzzyTerm *,std::allocator<FuzzyTerm *> >
PUBLIC	??$_Copy_memmove@PAPAVFuzzyTerm@@PAPAV1@@std@@YAPAPAVFuzzyTerm@@PAPAV1@00@Z ; std::_Copy_memmove<FuzzyTerm * *,FuzzyTerm * *>
PUBLIC	??_C@_1JA@IJKHNLMB@?$AAC?$AA?3?$AA?2?$AAP?$AAr?$AAo?$AAg?$AAr?$AAa?$AAm?$AA?5?$AAF?$AAi?$AAl?$AAe?$AAs?$AA?5?$AA?$CI?$AAx?$AA8?$AA6?$AA?$CJ?$AA?2?$AAM?$AAi?$AAc?$AAr?$AAo?$AAs?$AAo?$AAf?$AAt@ ; `string'
PUBLIC	??_C@_1DC@POOIKBAO@?$AAI?$AAT?$AAE?$AAR?$AAA?$AAT?$AAO?$AAR?$AA?5?$AAL?$AAI?$AAS?$AAT?$AA?5?$AAC?$AAO?$AAR?$AAR?$AAU?$AAP?$AAT?$AAE?$AAD?$AA?$CB?$AA?$AA@ ; `string'
PUBLIC	??_C@_0BE@LMNLACIC@_Ptr_container?5?$CB?$DN?50?$AA@ ; `string'
PUBLIC	??_C@_1DG@HGDKEBPG@?$AA?$CC?$AA_?$AAP?$AAt?$AAr?$AA_?$AAc?$AAo?$AAn?$AAt?$AAa?$AAi?$AAn?$AAe?$AAr?$AA?5?$AA?$CB?$AA?$DN?$AA?5?$AA0?$AA?$CC?$AA?5?$AA?$CG?$AA?$CG?$AA?5?$AA0?$AA?$AA@ ; `string'
PUBLIC	??_C@_17CNPHIMPH@?$AA?$CF?$AAl?$AAs?$AA?$AA@	; `string'
PUBLIC	??_C@_1JA@HEEMAOGC@?$AAC?$AA?3?$AA?2?$AAP?$AAr?$AAo?$AAg?$AAr?$AAa?$AAm?$AA?5?$AAF?$AAi?$AAl?$AAe?$AAs?$AA?5?$AA?$CI?$AAx?$AA8?$AA6?$AA?$CJ?$AA?2?$AAM?$AAi?$AAc?$AAr?$AAo?$AAs?$AAo?$AAf?$AAt@ ; `string'
PUBLIC	??_C@_1BO@NKFMJPA@?$AAs?$AAt?$AAd?$AA?3?$AA?3?$AA_?$AAA?$AAl?$AAl?$AAo?$AAc?$AAa?$AAt?$AAe?$AA?$AA@ ; `string'
PUBLIC	??_C@_1CG@JNLFBNGN@?$AA?$CC?$AAi?$AAn?$AAv?$AAa?$AAl?$AAi?$AAd?$AA?5?$AAa?$AAr?$AAg?$AAu?$AAm?$AAe?$AAn?$AAt?$AA?$CC?$AA?$AA@ ; `string'
PUBLIC	??_C@_09GLJCAGLP@_Ptr?5?$CB?$DN?50?$AA@		; `string'
PUBLIC	??_C@_1CC@GKJLLHIM@?$AA?$CC?$AA_?$AAP?$AAt?$AAr?$AA?5?$AA?$CB?$AA?$DN?$AA?5?$AA0?$AA?$CC?$AA?5?$AA?$CG?$AA?$CG?$AA?5?$AA0?$AA?$AA@ ; `string'
PUBLIC	??_C@_0BN@HMCJOMKN@_Count?5?$DM?$DN?5?$CIsize_t?$CJ?$CI?91?$CJ?5?1?5_Sz?$AA@ ; `string'
PUBLIC	??_C@_1EI@MLOBABC@?$AA?$CC?$AA_?$AAC?$AAo?$AAu?$AAn?$AAt?$AA?5?$AA?$DM?$AA?$DN?$AA?5?$AA?$CI?$AAs?$AAi?$AAz?$AAe?$AA_?$AAt?$AA?$CJ?$AA?$CI?$AA?9?$AA1?$AA?$CJ?$AA?5?$AA?1?$AA?5?$AA_?$AAS?$AAz?$AA?$CC?$AA?5?$AA?$CG@ ; `string'
PUBLIC	??_C@_1CC@LOFJFFDB@?$AAs?$AAt?$AAd?$AA?3?$AA?3?$AA_?$AAD?$AAe?$AAa?$AAl?$AAl?$AAo?$AAc?$AAa?$AAt?$AAe?$AA?$AA@ ; `string'
PUBLIC	??_C@_0DD@GBGGGKGG@?$CI_Ptr_user?5?$CG?5?$CI_BIG_ALLOCATION_AL@ ; `string'
PUBLIC	??_C@_1HE@CDMBFOKC@?$AA?$CC?$AA?$CI?$AA_?$AAP?$AAt?$AAr?$AA_?$AAu?$AAs?$AAe?$AAr?$AA?5?$AA?$CG?$AA?5?$AA?$CI?$AA_?$AAB?$AAI?$AAG?$AA_?$AAA?$AAL?$AAL?$AAO?$AAC?$AAA?$AAT?$AAI?$AAO?$AAN?$AA_?$AAA@ ; `string'
PUBLIC	??_C@_0EI@NOJHEJCJ@reinterpret_cast?$DMuintptr_t?5?$CK?$DO?$CI_P@ ; `string'
PUBLIC	??_C@_1JO@EKLKIEHP@?$AA?$CC?$AAr?$AAe?$AAi?$AAn?$AAt?$AAe?$AAr?$AAp?$AAr?$AAe?$AAt?$AA_?$AAc?$AAa?$AAs?$AAt?$AA?$DM?$AAu?$AAi?$AAn?$AAt?$AAp?$AAt?$AAr?$AA_?$AAt?$AA?5?$AA?$CK?$AA?$DO?$AA?$CI?$AA_@ ; `string'
PUBLIC	??_C@_0BL@OCKMEJON@_Ptr_container?5?$DM?5_Ptr_user?$AA@ ; `string'
PUBLIC	??_C@_1EE@PDHAHDDC@?$AA?$CC?$AA_?$AAP?$AAt?$AAr?$AA_?$AAc?$AAo?$AAn?$AAt?$AAa?$AAi?$AAn?$AAe?$AAr?$AA?5?$AA?$DM?$AA?5?$AA_?$AAP?$AAt?$AAr?$AA_?$AAu?$AAs?$AAe?$AAr?$AA?$CC?$AA?5?$AA?$CG?$AA?$CG?$AA?5@ ; `string'
PUBLIC	??_C@_0DB@GLFJLNCE@2?5?$CK?5sizeof?$CIvoid?5?$CK?$CJ?5?$DM?$DN?5_Ptr_user?5@ ; `string'
PUBLIC	??_C@_1HA@NAPGMHAO@?$AA?$CC?$AA2?$AA?5?$AA?$CK?$AA?5?$AAs?$AAi?$AAz?$AAe?$AAo?$AAf?$AA?$CI?$AAv?$AAo?$AAi?$AAd?$AA?5?$AA?$CK?$AA?$CJ?$AA?5?$AA?$DM?$AA?$DN?$AA?5?$AA_?$AAP?$AAt?$AAr?$AA_?$AAu?$AAs?$AAe?$AAr@ ; `string'
PUBLIC	??_C@_0CN@BLHJCAL@_Ptr_user?5?9?5_Ptr_container?5?$DM?$DN?5_N@ ; `string'
PUBLIC	??_C@_1GI@DHJGPFNI@?$AA?$CC?$AA_?$AAP?$AAt?$AAr?$AA_?$AAu?$AAs?$AAe?$AAr?$AA?5?$AA?9?$AA?5?$AA_?$AAP?$AAt?$AAr?$AA_?$AAc?$AAo?$AAn?$AAt?$AAa?$AAi?$AAn?$AAe?$AAr?$AA?5?$AA?$DM?$AA?$DN?$AA?5?$AA_@ ; `string'
PUBLIC	??_7FuzzyTerm@@6B@				; FuzzyTerm::`vftable'
PUBLIC	??_7FzAND@@6B@					; FzAND::`vftable'
PUBLIC	??_7FzOR@@6B@					; FzOR::`vftable'
PUBLIC	??_C@_1BAK@KLDFNOCP@?$AAg?$AA?3?$AA?2?$AAd?$AAo?$AAo?$AAm?$AA?2?$AAn?$AAe?$AAw?$AA?5?$AAk?$AAi?$AAn?$AAg?$AAd?$AAo?$AAm?$AA?2?$AAg?$AAa?$AAm?$AAe?$AA?5?$AAd?$AAe?$AAv?$AAe?$AAl?$AAo?$AAp@ ; `string'
PUBLIC	??_C@_1FC@EJGEACIH@?$AA0?$AA?5?$AA?$CG?$AA?$CG?$AA?5?$AA?$CC?$AA?$DM?$AAF?$AAz?$AAO?$AAR?$AA?3?$AA?3?$AAC?$AAl?$AAe?$AAa?$AAr?$AAD?$AAO?$AAM?$AA?$DO?$AA?3?$AA?5?$AAi?$AAn?$AAv?$AAa?$AAl?$AAi?$AAd?$AA?5@ ; `string'
PUBLIC	??_C@_1FE@EKNHDPMB@?$AA0?$AA?5?$AA?$CG?$AA?$CG?$AA?5?$AA?$CC?$AA?$DM?$AAF?$AAz?$AAO?$AAR?$AA?3?$AA?3?$AAO?$AAR?$AAw?$AAi?$AAt?$AAh?$AAD?$AAO?$AAM?$AA?$DO?$AA?3?$AA?5?$AAi?$AAn?$AAv?$AAa?$AAl?$AAi?$AAd@ ; `string'
PUBLIC	??_C@_1IM@LECEOODI@?$AAC?$AA?3?$AA?2?$AAP?$AAr?$AAo?$AAg?$AAr?$AAa?$AAm?$AA?5?$AAF?$AAi?$AAl?$AAe?$AAs?$AA?5?$AA?$CI?$AAx?$AA8?$AA6?$AA?$CJ?$AA?2?$AAM?$AAi?$AAc?$AAr?$AAo?$AAs?$AAo?$AAf?$AAt@ ; `string'
PUBLIC	??_C@_1EE@EJDKCLKB@?$AAv?$AAe?$AAc?$AAt?$AAo?$AAr?$AA?5?$AAi?$AAt?$AAe?$AAr?$AAa?$AAt?$AAo?$AAr?$AA?5?$AAn?$AAo?$AAt?$AA?5?$AAi?$AAn?$AAc?$AAr?$AAe?$AAm?$AAe?$AAn?$AAt?$AAa?$AAb?$AAl@ ; `string'
PUBLIC	??_C@_0CE@OFMIGAMM@Standard?5C?$CL?$CL?5Libraries?5Out?5of?5Ra@ ; `string'
PUBLIC	??_C@_1FG@IBPIFFN@?$AA?$CC?$AAS?$AAt?$AAa?$AAn?$AAd?$AAa?$AAr?$AAd?$AA?5?$AAC?$AA?$CL?$AA?$CL?$AA?5?$AAL?$AAi?$AAb?$AAr?$AAa?$AAr?$AAi?$AAe?$AAs?$AA?5?$AAO?$AAu?$AAt?$AA?5?$AAo?$AAf?$AA?5?$AAR@ ; `string'
PUBLIC	??_C@_1OC@CGPGIJAB@?$AAs?$AAt?$AAd?$AA?3?$AA?3?$AA_?$AAV?$AAe?$AAc?$AAt?$AAo?$AAr?$AA_?$AAc?$AAo?$AAn?$AAs?$AAt?$AA_?$AAi?$AAt?$AAe?$AAr?$AAa?$AAt?$AAo?$AAr?$AA?$DM?$AAc?$AAl?$AAa?$AAs@ ; `string'
PUBLIC	??_C@_1BO@MEPPHOO@?$AA?$CC?$AAo?$AAu?$AAt?$AA?5?$AAo?$AAf?$AA?5?$AAr?$AAa?$AAn?$AAg?$AAe?$AA?$CC?$AA?$AA@ ; `string'
PUBLIC	??_C@_1EG@FOHJJHAC@?$AAv?$AAe?$AAc?$AAt?$AAo?$AAr?$AA?5?$AAi?$AAt?$AAe?$AAr?$AAa?$AAt?$AAo?$AAr?$AA?5?$AAn?$AAo?$AAt?$AA?5?$AAd?$AAe?$AAr?$AAe?$AAf?$AAe?$AAr?$AAe?$AAn?$AAc?$AAa?$AAb@ ; `string'
PUBLIC	??_C@_1OA@BIBNCNDA@?$AAs?$AAt?$AAd?$AA?3?$AA?3?$AA_?$AAV?$AAe?$AAc?$AAt?$AAo?$AAr?$AA_?$AAc?$AAo?$AAn?$AAs?$AAt?$AA_?$AAi?$AAt?$AAe?$AAr?$AAa?$AAt?$AAo?$AAr?$AA?$DM?$AAc?$AAl?$AAa?$AAs@ ; `string'
PUBLIC	??_C@_1DM@HINDPMBP@?$AAv?$AAe?$AAc?$AAt?$AAo?$AAr?$AA?5?$AAi?$AAt?$AAe?$AAr?$AAa?$AAt?$AAo?$AAr?$AAs?$AA?5?$AAi?$AAn?$AAc?$AAo?$AAm?$AAp?$AAa?$AAt?$AAi?$AAb?$AAl?$AAe?$AA?$AA@ ; `string'
PUBLIC	??_C@_0CI@FNPHFCCM@Standard?5C?$CL?$CL?5Libraries?5Invalid?5A@ ; `string'
PUBLIC	??_C@_1FO@GJIHNDLM@?$AA?$CC?$AAS?$AAt?$AAa?$AAn?$AAd?$AAa?$AAr?$AAd?$AA?5?$AAC?$AA?$CL?$AA?$CL?$AA?5?$AAL?$AAi?$AAb?$AAr?$AAa?$AAr?$AAi?$AAe?$AAs?$AA?5?$AAI?$AAn?$AAv?$AAa?$AAl?$AAi?$AAd?$AA?5@ ; `string'
PUBLIC	??_C@_1NK@PBOLGCJB@?$AAs?$AAt?$AAd?$AA?3?$AA?3?$AA_?$AAV?$AAe?$AAc?$AAt?$AAo?$AAr?$AA_?$AAc?$AAo?$AAn?$AAs?$AAt?$AA_?$AAi?$AAt?$AAe?$AAr?$AAa?$AAt?$AAo?$AAr?$AA?$DM?$AAc?$AAl?$AAa?$AAs@ ; `string'
PUBLIC	??_C@_0BD@OLBABOEK@vector?$DMT?$DO?5too?5long?$AA@ ; `string'
PUBLIC	??_R4FuzzyTerm@@6B@				; FuzzyTerm::`RTTI Complete Object Locator'
PUBLIC	??_R0?AVFuzzyTerm@@@8				; FuzzyTerm `RTTI Type Descriptor'
PUBLIC	??_R3FuzzyTerm@@8				; FuzzyTerm::`RTTI Class Hierarchy Descriptor'
PUBLIC	??_R2FuzzyTerm@@8				; FuzzyTerm::`RTTI Base Class Array'
PUBLIC	??_R1A@?0A@EA@FuzzyTerm@@8			; FuzzyTerm::`RTTI Base Class Descriptor at (0,-1,0,64)'
PUBLIC	??_R4FzAND@@6B@					; FzAND::`RTTI Complete Object Locator'
PUBLIC	??_R0?AVFzAND@@@8				; FzAND `RTTI Type Descriptor'
PUBLIC	??_R3FzAND@@8					; FzAND::`RTTI Class Hierarchy Descriptor'
PUBLIC	??_R2FzAND@@8					; FzAND::`RTTI Base Class Array'
PUBLIC	??_R1A@?0A@EA@FzAND@@8				; FzAND::`RTTI Base Class Descriptor at (0,-1,0,64)'
PUBLIC	??_R4FzOR@@6B@					; FzOR::`RTTI Complete Object Locator'
PUBLIC	??_R0?AVFzOR@@@8				; FzOR `RTTI Type Descriptor'
PUBLIC	??_R3FzOR@@8					; FzOR::`RTTI Class Hierarchy Descriptor'
PUBLIC	??_R2FzOR@@8					; FzOR::`RTTI Base Class Array'
PUBLIC	??_R1A@?0A@EA@FzOR@@8				; FzOR::`RTTI Base Class Descriptor at (0,-1,0,64)'
PUBLIC	__real@0010000000000000
PUBLIC	__real@00800000
PUBLIC	__real@3810000000000000
PUBLIC	__real@7f7fffff
PUBLIC	__real@7fefffffffffffff
EXTRN	__purecall:PROC
EXTRN	??2@YAPAXI@Z:PROC				; operator new
EXTRN	??3@YAXPAX@Z:PROC				; operator delete
EXTRN	??3@YAXPAXI@Z:PROC				; operator delete
EXTRN	__invalid_parameter:PROC
EXTRN	??0_Lockit@std@@QAE@H@Z:PROC			; std::_Lockit::_Lockit
EXTRN	??1_Lockit@std@@QAE@XZ:PROC			; std::_Lockit::~_Lockit
EXTRN	_memmove:PROC
EXTRN	__CrtDbgReportW:PROC
EXTRN	?_Debug_message@std@@YAXPB_W0I@Z:PROC		; std::_Debug_message
EXTRN	?_Xbad_alloc@std@@YAXXZ:PROC			; std::_Xbad_alloc
EXTRN	?_Xlength_error@std@@YAXPBD@Z:PROC		; std::_Xlength_error
EXTRN	__wassert:PROC
EXTRN	??_EFuzzyTerm@@UAEPAXI@Z:PROC			; FuzzyTerm::`vector deleting destructor'
EXTRN	??_EFzAND@@UAEPAXI@Z:PROC			; FzAND::`vector deleting destructor'
EXTRN	??_EFzOR@@UAEPAXI@Z:PROC			; FzOR::`vector deleting destructor'
EXTRN	@_RTC_CheckStackVars@8:PROC
EXTRN	@__security_check_cookie@4:PROC
EXTRN	__CxxThrowException@8:PROC
EXTRN	__RTC_CheckEsp:PROC
EXTRN	__RTC_InitBase:PROC
EXTRN	__RTC_Shutdown:PROC
EXTRN	___CxxFrameHandler3:PROC
EXTRN	??_7type_info@@6B@:QWORD			; type_info::`vftable'
EXTRN	___security_cookie:DWORD
EXTRN	__fltused:DWORD
_BSS	SEGMENT
?MaxInt@@3HB DD	01H DUP (?)				; MaxInt
	ALIGN	8

?MaxDouble@@3NB DQ 01H DUP (?)				; MaxDouble
?MinDouble@@3NB DQ 01H DUP (?)				; MinDouble
?MaxFloat@@3MB DD 01H DUP (?)				; MaxFloat
?MinFloat@@3MB DD 01H DUP (?)				; MinFloat
_BSS	ENDS
CRT$XCU	SEGMENT
?MaxInt$initializer$@@3P6AXXZA DD FLAT:??__EMaxInt@@YAXXZ ; MaxInt$initializer$
CRT$XCU	ENDS
;	COMDAT __real@7fefffffffffffff
CONST	SEGMENT
__real@7fefffffffffffff DQ 07fefffffffffffffr	; 1.79769e+308
CONST	ENDS
;	COMDAT __real@7f7fffff
CONST	SEGMENT
__real@7f7fffff DD 07f7fffffr			; 3.40282e+38
CONST	ENDS
;	COMDAT __real@3810000000000000
CONST	SEGMENT
__real@3810000000000000 DQ 03810000000000000r	; 1.17549e-38
CONST	ENDS
;	COMDAT __real@00800000
CONST	SEGMENT
__real@00800000 DD 000800000r			; 1.17549e-38
CONST	ENDS
;	COMDAT __real@0010000000000000
CONST	SEGMENT
__real@0010000000000000 DQ 00010000000000000r	; 2.22507e-308
CONST	ENDS
;	COMDAT rtc$TMZ
rtc$TMZ	SEGMENT
__RTC_Shutdown.rtc$TMZ DD FLAT:__RTC_Shutdown
rtc$TMZ	ENDS
;	COMDAT rtc$IMZ
rtc$IMZ	SEGMENT
__RTC_InitBase.rtc$IMZ DD FLAT:__RTC_InitBase
rtc$IMZ	ENDS
;	COMDAT ??_R1A@?0A@EA@FzOR@@8
rdata$r	SEGMENT
??_R1A@?0A@EA@FzOR@@8 DD FLAT:??_R0?AVFzOR@@@8		; FzOR::`RTTI Base Class Descriptor at (0,-1,0,64)'
	DD	01H
	DD	00H
	DD	0ffffffffH
	DD	00H
	DD	040H
	DD	FLAT:??_R3FzOR@@8
rdata$r	ENDS
;	COMDAT ??_R2FzOR@@8
rdata$r	SEGMENT
??_R2FzOR@@8 DD	FLAT:??_R1A@?0A@EA@FzOR@@8		; FzOR::`RTTI Base Class Array'
	DD	FLAT:??_R1A@?0A@EA@FuzzyTerm@@8
rdata$r	ENDS
;	COMDAT ??_R3FzOR@@8
rdata$r	SEGMENT
??_R3FzOR@@8 DD	00H					; FzOR::`RTTI Class Hierarchy Descriptor'
	DD	00H
	DD	02H
	DD	FLAT:??_R2FzOR@@8
rdata$r	ENDS
;	COMDAT ??_R0?AVFzOR@@@8
data$r	SEGMENT
??_R0?AVFzOR@@@8 DD FLAT:??_7type_info@@6B@		; FzOR `RTTI Type Descriptor'
	DD	00H
	DB	'.?AVFzOR@@', 00H
data$r	ENDS
;	COMDAT ??_R4FzOR@@6B@
rdata$r	SEGMENT
??_R4FzOR@@6B@ DD 00H					; FzOR::`RTTI Complete Object Locator'
	DD	00H
	DD	00H
	DD	FLAT:??_R0?AVFzOR@@@8
	DD	FLAT:??_R3FzOR@@8
rdata$r	ENDS
;	COMDAT ??_R1A@?0A@EA@FzAND@@8
rdata$r	SEGMENT
??_R1A@?0A@EA@FzAND@@8 DD FLAT:??_R0?AVFzAND@@@8	; FzAND::`RTTI Base Class Descriptor at (0,-1,0,64)'
	DD	01H
	DD	00H
	DD	0ffffffffH
	DD	00H
	DD	040H
	DD	FLAT:??_R3FzAND@@8
rdata$r	ENDS
;	COMDAT ??_R2FzAND@@8
rdata$r	SEGMENT
??_R2FzAND@@8 DD FLAT:??_R1A@?0A@EA@FzAND@@8		; FzAND::`RTTI Base Class Array'
	DD	FLAT:??_R1A@?0A@EA@FuzzyTerm@@8
rdata$r	ENDS
;	COMDAT ??_R3FzAND@@8
rdata$r	SEGMENT
??_R3FzAND@@8 DD 00H					; FzAND::`RTTI Class Hierarchy Descriptor'
	DD	00H
	DD	02H
	DD	FLAT:??_R2FzAND@@8
rdata$r	ENDS
;	COMDAT ??_R0?AVFzAND@@@8
data$r	SEGMENT
??_R0?AVFzAND@@@8 DD FLAT:??_7type_info@@6B@		; FzAND `RTTI Type Descriptor'
	DD	00H
	DB	'.?AVFzAND@@', 00H
data$r	ENDS
;	COMDAT ??_R4FzAND@@6B@
rdata$r	SEGMENT
??_R4FzAND@@6B@ DD 00H					; FzAND::`RTTI Complete Object Locator'
	DD	00H
	DD	00H
	DD	FLAT:??_R0?AVFzAND@@@8
	DD	FLAT:??_R3FzAND@@8
rdata$r	ENDS
;	COMDAT ??_R1A@?0A@EA@FuzzyTerm@@8
rdata$r	SEGMENT
??_R1A@?0A@EA@FuzzyTerm@@8 DD FLAT:??_R0?AVFuzzyTerm@@@8 ; FuzzyTerm::`RTTI Base Class Descriptor at (0,-1,0,64)'
	DD	00H
	DD	00H
	DD	0ffffffffH
	DD	00H
	DD	040H
	DD	FLAT:??_R3FuzzyTerm@@8
rdata$r	ENDS
;	COMDAT ??_R2FuzzyTerm@@8
rdata$r	SEGMENT
??_R2FuzzyTerm@@8 DD FLAT:??_R1A@?0A@EA@FuzzyTerm@@8	; FuzzyTerm::`RTTI Base Class Array'
rdata$r	ENDS
;	COMDAT ??_R3FuzzyTerm@@8
rdata$r	SEGMENT
??_R3FuzzyTerm@@8 DD 00H				; FuzzyTerm::`RTTI Class Hierarchy Descriptor'
	DD	00H
	DD	01H
	DD	FLAT:??_R2FuzzyTerm@@8
rdata$r	ENDS
;	COMDAT ??_R0?AVFuzzyTerm@@@8
data$r	SEGMENT
??_R0?AVFuzzyTerm@@@8 DD FLAT:??_7type_info@@6B@	; FuzzyTerm `RTTI Type Descriptor'
	DD	00H
	DB	'.?AVFuzzyTerm@@', 00H
data$r	ENDS
;	COMDAT ??_R4FuzzyTerm@@6B@
rdata$r	SEGMENT
??_R4FuzzyTerm@@6B@ DD 00H				; FuzzyTerm::`RTTI Complete Object Locator'
	DD	00H
	DD	00H
	DD	FLAT:??_R0?AVFuzzyTerm@@@8
	DD	FLAT:??_R3FuzzyTerm@@8
rdata$r	ENDS
;	COMDAT ??_C@_0BD@OLBABOEK@vector?$DMT?$DO?5too?5long?$AA@
CONST	SEGMENT
??_C@_0BD@OLBABOEK@vector?$DMT?$DO?5too?5long?$AA@ DB 'vector<T> too long'
	DB	00H						; `string'
CONST	ENDS
;	COMDAT ??_C@_1NK@PBOLGCJB@?$AAs?$AAt?$AAd?$AA?3?$AA?3?$AA_?$AAV?$AAe?$AAc?$AAt?$AAo?$AAr?$AA_?$AAc?$AAo?$AAn?$AAs?$AAt?$AA_?$AAi?$AAt?$AAe?$AAr?$AAa?$AAt?$AAo?$AAr?$AA?$DM?$AAc?$AAl?$AAa?$AAs@
CONST	SEGMENT
??_C@_1NK@PBOLGCJB@?$AAs?$AAt?$AAd?$AA?3?$AA?3?$AA_?$AAV?$AAe?$AAc?$AAt?$AAo?$AAr?$AA_?$AAc?$AAo?$AAn?$AAs?$AAt?$AA_?$AAi?$AAt?$AAe?$AAr?$AAa?$AAt?$AAo?$AAr?$AA?$DM?$AAc?$AAl?$AAa?$AAs@ DB 's'
	DB	00H, 't', 00H, 'd', 00H, ':', 00H, ':', 00H, '_', 00H, 'V', 00H
	DB	'e', 00H, 'c', 00H, 't', 00H, 'o', 00H, 'r', 00H, '_', 00H, 'c'
	DB	00H, 'o', 00H, 'n', 00H, 's', 00H, 't', 00H, '_', 00H, 'i', 00H
	DB	't', 00H, 'e', 00H, 'r', 00H, 'a', 00H, 't', 00H, 'o', 00H, 'r'
	DB	00H, '<', 00H, 'c', 00H, 'l', 00H, 'a', 00H, 's', 00H, 's', 00H
	DB	' ', 00H, 's', 00H, 't', 00H, 'd', 00H, ':', 00H, ':', 00H, '_'
	DB	00H, 'V', 00H, 'e', 00H, 'c', 00H, 't', 00H, 'o', 00H, 'r', 00H
	DB	'_', 00H, 'v', 00H, 'a', 00H, 'l', 00H, '<', 00H, 's', 00H, 't'
	DB	00H, 'r', 00H, 'u', 00H, 'c', 00H, 't', 00H, ' ', 00H, 's', 00H
	DB	't', 00H, 'd', 00H, ':', 00H, ':', 00H, '_', 00H, 'S', 00H, 'i'
	DB	00H, 'm', 00H, 'p', 00H, 'l', 00H, 'e', 00H, '_', 00H, 't', 00H
	DB	'y', 00H, 'p', 00H, 'e', 00H, 's', 00H, '<', 00H, 'c', 00H, 'l'
	DB	00H, 'a', 00H, 's', 00H, 's', 00H, ' ', 00H, 'F', 00H, 'u', 00H
	DB	'z', 00H, 'z', 00H, 'y', 00H, 'T', 00H, 'e', 00H, 'r', 00H, 'm'
	DB	00H, ' ', 00H, '*', 00H, '>', 00H, ' ', 00H, '>', 00H, ' ', 00H
	DB	'>', 00H, ':', 00H, ':', 00H, '_', 00H, 'C', 00H, 'o', 00H, 'm'
	DB	00H, 'p', 00H, 'a', 00H, 't', 00H, 00H, 00H	; `string'
CONST	ENDS
;	COMDAT ??_C@_1FO@GJIHNDLM@?$AA?$CC?$AAS?$AAt?$AAa?$AAn?$AAd?$AAa?$AAr?$AAd?$AA?5?$AAC?$AA?$CL?$AA?$CL?$AA?5?$AAL?$AAi?$AAb?$AAr?$AAa?$AAr?$AAi?$AAe?$AAs?$AA?5?$AAI?$AAn?$AAv?$AAa?$AAl?$AAi?$AAd?$AA?5@
CONST	SEGMENT
??_C@_1FO@GJIHNDLM@?$AA?$CC?$AAS?$AAt?$AAa?$AAn?$AAd?$AAa?$AAr?$AAd?$AA?5?$AAC?$AA?$CL?$AA?$CL?$AA?5?$AAL?$AAi?$AAb?$AAr?$AAa?$AAr?$AAi?$AAe?$AAs?$AA?5?$AAI?$AAn?$AAv?$AAa?$AAl?$AAi?$AAd?$AA?5@ DB '"'
	DB	00H, 'S', 00H, 't', 00H, 'a', 00H, 'n', 00H, 'd', 00H, 'a', 00H
	DB	'r', 00H, 'd', 00H, ' ', 00H, 'C', 00H, '+', 00H, '+', 00H, ' '
	DB	00H, 'L', 00H, 'i', 00H, 'b', 00H, 'r', 00H, 'a', 00H, 'r', 00H
	DB	'i', 00H, 'e', 00H, 's', 00H, ' ', 00H, 'I', 00H, 'n', 00H, 'v'
	DB	00H, 'a', 00H, 'l', 00H, 'i', 00H, 'd', 00H, ' ', 00H, 'A', 00H
	DB	'r', 00H, 'g', 00H, 'u', 00H, 'm', 00H, 'e', 00H, 'n', 00H, 't'
	DB	00H, '"', 00H, ' ', 00H, '&', 00H, '&', 00H, ' ', 00H, '0', 00H
	DB	00H, 00H					; `string'
CONST	ENDS
;	COMDAT ??_C@_0CI@FNPHFCCM@Standard?5C?$CL?$CL?5Libraries?5Invalid?5A@
CONST	SEGMENT
??_C@_0CI@FNPHFCCM@Standard?5C?$CL?$CL?5Libraries?5Invalid?5A@ DB 'Standa'
	DB	'rd C++ Libraries Invalid Argument', 00H	; `string'
CONST	ENDS
;	COMDAT ??_C@_1DM@HINDPMBP@?$AAv?$AAe?$AAc?$AAt?$AAo?$AAr?$AA?5?$AAi?$AAt?$AAe?$AAr?$AAa?$AAt?$AAo?$AAr?$AAs?$AA?5?$AAi?$AAn?$AAc?$AAo?$AAm?$AAp?$AAa?$AAt?$AAi?$AAb?$AAl?$AAe?$AA?$AA@
CONST	SEGMENT
??_C@_1DM@HINDPMBP@?$AAv?$AAe?$AAc?$AAt?$AAo?$AAr?$AA?5?$AAi?$AAt?$AAe?$AAr?$AAa?$AAt?$AAo?$AAr?$AAs?$AA?5?$AAi?$AAn?$AAc?$AAo?$AAm?$AAp?$AAa?$AAt?$AAi?$AAb?$AAl?$AAe?$AA?$AA@ DB 'v'
	DB	00H, 'e', 00H, 'c', 00H, 't', 00H, 'o', 00H, 'r', 00H, ' ', 00H
	DB	'i', 00H, 't', 00H, 'e', 00H, 'r', 00H, 'a', 00H, 't', 00H, 'o'
	DB	00H, 'r', 00H, 's', 00H, ' ', 00H, 'i', 00H, 'n', 00H, 'c', 00H
	DB	'o', 00H, 'm', 00H, 'p', 00H, 'a', 00H, 't', 00H, 'i', 00H, 'b'
	DB	00H, 'l', 00H, 'e', 00H, 00H, 00H		; `string'
CONST	ENDS
;	COMDAT ??_C@_1OA@BIBNCNDA@?$AAs?$AAt?$AAd?$AA?3?$AA?3?$AA_?$AAV?$AAe?$AAc?$AAt?$AAo?$AAr?$AA_?$AAc?$AAo?$AAn?$AAs?$AAt?$AA_?$AAi?$AAt?$AAe?$AAr?$AAa?$AAt?$AAo?$AAr?$AA?$DM?$AAc?$AAl?$AAa?$AAs@
CONST	SEGMENT
??_C@_1OA@BIBNCNDA@?$AAs?$AAt?$AAd?$AA?3?$AA?3?$AA_?$AAV?$AAe?$AAc?$AAt?$AAo?$AAr?$AA_?$AAc?$AAo?$AAn?$AAs?$AAt?$AA_?$AAi?$AAt?$AAe?$AAr?$AAa?$AAt?$AAo?$AAr?$AA?$DM?$AAc?$AAl?$AAa?$AAs@ DB 's'
	DB	00H, 't', 00H, 'd', 00H, ':', 00H, ':', 00H, '_', 00H, 'V', 00H
	DB	'e', 00H, 'c', 00H, 't', 00H, 'o', 00H, 'r', 00H, '_', 00H, 'c'
	DB	00H, 'o', 00H, 'n', 00H, 's', 00H, 't', 00H, '_', 00H, 'i', 00H
	DB	't', 00H, 'e', 00H, 'r', 00H, 'a', 00H, 't', 00H, 'o', 00H, 'r'
	DB	00H, '<', 00H, 'c', 00H, 'l', 00H, 'a', 00H, 's', 00H, 's', 00H
	DB	' ', 00H, 's', 00H, 't', 00H, 'd', 00H, ':', 00H, ':', 00H, '_'
	DB	00H, 'V', 00H, 'e', 00H, 'c', 00H, 't', 00H, 'o', 00H, 'r', 00H
	DB	'_', 00H, 'v', 00H, 'a', 00H, 'l', 00H, '<', 00H, 's', 00H, 't'
	DB	00H, 'r', 00H, 'u', 00H, 'c', 00H, 't', 00H, ' ', 00H, 's', 00H
	DB	't', 00H, 'd', 00H, ':', 00H, ':', 00H, '_', 00H, 'S', 00H, 'i'
	DB	00H, 'm', 00H, 'p', 00H, 'l', 00H, 'e', 00H, '_', 00H, 't', 00H
	DB	'y', 00H, 'p', 00H, 'e', 00H, 's', 00H, '<', 00H, 'c', 00H, 'l'
	DB	00H, 'a', 00H, 's', 00H, 's', 00H, ' ', 00H, 'F', 00H, 'u', 00H
	DB	'z', 00H, 'z', 00H, 'y', 00H, 'T', 00H, 'e', 00H, 'r', 00H, 'm'
	DB	00H, ' ', 00H, '*', 00H, '>', 00H, ' ', 00H, '>', 00H, ' ', 00H
	DB	'>', 00H, ':', 00H, ':', 00H, 'o', 00H, 'p', 00H, 'e', 00H, 'r'
	DB	00H, 'a', 00H, 't', 00H, 'o', 00H, 'r', 00H, ' ', 00H, '*', 00H
	DB	00H, 00H					; `string'
CONST	ENDS
;	COMDAT ??_C@_1EG@FOHJJHAC@?$AAv?$AAe?$AAc?$AAt?$AAo?$AAr?$AA?5?$AAi?$AAt?$AAe?$AAr?$AAa?$AAt?$AAo?$AAr?$AA?5?$AAn?$AAo?$AAt?$AA?5?$AAd?$AAe?$AAr?$AAe?$AAf?$AAe?$AAr?$AAe?$AAn?$AAc?$AAa?$AAb@
CONST	SEGMENT
??_C@_1EG@FOHJJHAC@?$AAv?$AAe?$AAc?$AAt?$AAo?$AAr?$AA?5?$AAi?$AAt?$AAe?$AAr?$AAa?$AAt?$AAo?$AAr?$AA?5?$AAn?$AAo?$AAt?$AA?5?$AAd?$AAe?$AAr?$AAe?$AAf?$AAe?$AAr?$AAe?$AAn?$AAc?$AAa?$AAb@ DB 'v'
	DB	00H, 'e', 00H, 'c', 00H, 't', 00H, 'o', 00H, 'r', 00H, ' ', 00H
	DB	'i', 00H, 't', 00H, 'e', 00H, 'r', 00H, 'a', 00H, 't', 00H, 'o'
	DB	00H, 'r', 00H, ' ', 00H, 'n', 00H, 'o', 00H, 't', 00H, ' ', 00H
	DB	'd', 00H, 'e', 00H, 'r', 00H, 'e', 00H, 'f', 00H, 'e', 00H, 'r'
	DB	00H, 'e', 00H, 'n', 00H, 'c', 00H, 'a', 00H, 'b', 00H, 'l', 00H
	DB	'e', 00H, 00H, 00H				; `string'
CONST	ENDS
;	COMDAT ??_C@_1BO@MEPPHOO@?$AA?$CC?$AAo?$AAu?$AAt?$AA?5?$AAo?$AAf?$AA?5?$AAr?$AAa?$AAn?$AAg?$AAe?$AA?$CC?$AA?$AA@
CONST	SEGMENT
??_C@_1BO@MEPPHOO@?$AA?$CC?$AAo?$AAu?$AAt?$AA?5?$AAo?$AAf?$AA?5?$AAr?$AAa?$AAn?$AAg?$AAe?$AA?$CC?$AA?$AA@ DB '"'
	DB	00H, 'o', 00H, 'u', 00H, 't', 00H, ' ', 00H, 'o', 00H, 'f', 00H
	DB	' ', 00H, 'r', 00H, 'a', 00H, 'n', 00H, 'g', 00H, 'e', 00H, '"'
	DB	00H, 00H, 00H				; `string'
CONST	ENDS
;	COMDAT ??_C@_1OC@CGPGIJAB@?$AAs?$AAt?$AAd?$AA?3?$AA?3?$AA_?$AAV?$AAe?$AAc?$AAt?$AAo?$AAr?$AA_?$AAc?$AAo?$AAn?$AAs?$AAt?$AA_?$AAi?$AAt?$AAe?$AAr?$AAa?$AAt?$AAo?$AAr?$AA?$DM?$AAc?$AAl?$AAa?$AAs@
CONST	SEGMENT
??_C@_1OC@CGPGIJAB@?$AAs?$AAt?$AAd?$AA?3?$AA?3?$AA_?$AAV?$AAe?$AAc?$AAt?$AAo?$AAr?$AA_?$AAc?$AAo?$AAn?$AAs?$AAt?$AA_?$AAi?$AAt?$AAe?$AAr?$AAa?$AAt?$AAo?$AAr?$AA?$DM?$AAc?$AAl?$AAa?$AAs@ DB 's'
	DB	00H, 't', 00H, 'd', 00H, ':', 00H, ':', 00H, '_', 00H, 'V', 00H
	DB	'e', 00H, 'c', 00H, 't', 00H, 'o', 00H, 'r', 00H, '_', 00H, 'c'
	DB	00H, 'o', 00H, 'n', 00H, 's', 00H, 't', 00H, '_', 00H, 'i', 00H
	DB	't', 00H, 'e', 00H, 'r', 00H, 'a', 00H, 't', 00H, 'o', 00H, 'r'
	DB	00H, '<', 00H, 'c', 00H, 'l', 00H, 'a', 00H, 's', 00H, 's', 00H
	DB	' ', 00H, 's', 00H, 't', 00H, 'd', 00H, ':', 00H, ':', 00H, '_'
	DB	00H, 'V', 00H, 'e', 00H, 'c', 00H, 't', 00H, 'o', 00H, 'r', 00H
	DB	'_', 00H, 'v', 00H, 'a', 00H, 'l', 00H, '<', 00H, 's', 00H, 't'
	DB	00H, 'r', 00H, 'u', 00H, 'c', 00H, 't', 00H, ' ', 00H, 's', 00H
	DB	't', 00H, 'd', 00H, ':', 00H, ':', 00H, '_', 00H, 'S', 00H, 'i'
	DB	00H, 'm', 00H, 'p', 00H, 'l', 00H, 'e', 00H, '_', 00H, 't', 00H
	DB	'y', 00H, 'p', 00H, 'e', 00H, 's', 00H, '<', 00H, 'c', 00H, 'l'
	DB	00H, 'a', 00H, 's', 00H, 's', 00H, ' ', 00H, 'F', 00H, 'u', 00H
	DB	'z', 00H, 'z', 00H, 'y', 00H, 'T', 00H, 'e', 00H, 'r', 00H, 'm'
	DB	00H, ' ', 00H, '*', 00H, '>', 00H, ' ', 00H, '>', 00H, ' ', 00H
	DB	'>', 00H, ':', 00H, ':', 00H, 'o', 00H, 'p', 00H, 'e', 00H, 'r'
	DB	00H, 'a', 00H, 't', 00H, 'o', 00H, 'r', 00H, ' ', 00H, '+', 00H
	DB	'+', 00H, 00H, 00H				; `string'
CONST	ENDS
;	COMDAT ??_C@_1FG@IBPIFFN@?$AA?$CC?$AAS?$AAt?$AAa?$AAn?$AAd?$AAa?$AAr?$AAd?$AA?5?$AAC?$AA?$CL?$AA?$CL?$AA?5?$AAL?$AAi?$AAb?$AAr?$AAa?$AAr?$AAi?$AAe?$AAs?$AA?5?$AAO?$AAu?$AAt?$AA?5?$AAo?$AAf?$AA?5?$AAR@
CONST	SEGMENT
??_C@_1FG@IBPIFFN@?$AA?$CC?$AAS?$AAt?$AAa?$AAn?$AAd?$AAa?$AAr?$AAd?$AA?5?$AAC?$AA?$CL?$AA?$CL?$AA?5?$AAL?$AAi?$AAb?$AAr?$AAa?$AAr?$AAi?$AAe?$AAs?$AA?5?$AAO?$AAu?$AAt?$AA?5?$AAo?$AAf?$AA?5?$AAR@ DB '"'
	DB	00H, 'S', 00H, 't', 00H, 'a', 00H, 'n', 00H, 'd', 00H, 'a', 00H
	DB	'r', 00H, 'd', 00H, ' ', 00H, 'C', 00H, '+', 00H, '+', 00H, ' '
	DB	00H, 'L', 00H, 'i', 00H, 'b', 00H, 'r', 00H, 'a', 00H, 'r', 00H
	DB	'i', 00H, 'e', 00H, 's', 00H, ' ', 00H, 'O', 00H, 'u', 00H, 't'
	DB	00H, ' ', 00H, 'o', 00H, 'f', 00H, ' ', 00H, 'R', 00H, 'a', 00H
	DB	'n', 00H, 'g', 00H, 'e', 00H, '"', 00H, ' ', 00H, '&', 00H, '&'
	DB	00H, ' ', 00H, '0', 00H, 00H, 00H		; `string'
CONST	ENDS
;	COMDAT ??_C@_0CE@OFMIGAMM@Standard?5C?$CL?$CL?5Libraries?5Out?5of?5Ra@
CONST	SEGMENT
??_C@_0CE@OFMIGAMM@Standard?5C?$CL?$CL?5Libraries?5Out?5of?5Ra@ DB 'Stand'
	DB	'ard C++ Libraries Out of Range', 00H	; `string'
CONST	ENDS
;	COMDAT ??_C@_1EE@EJDKCLKB@?$AAv?$AAe?$AAc?$AAt?$AAo?$AAr?$AA?5?$AAi?$AAt?$AAe?$AAr?$AAa?$AAt?$AAo?$AAr?$AA?5?$AAn?$AAo?$AAt?$AA?5?$AAi?$AAn?$AAc?$AAr?$AAe?$AAm?$AAe?$AAn?$AAt?$AAa?$AAb?$AAl@
CONST	SEGMENT
??_C@_1EE@EJDKCLKB@?$AAv?$AAe?$AAc?$AAt?$AAo?$AAr?$AA?5?$AAi?$AAt?$AAe?$AAr?$AAa?$AAt?$AAo?$AAr?$AA?5?$AAn?$AAo?$AAt?$AA?5?$AAi?$AAn?$AAc?$AAr?$AAe?$AAm?$AAe?$AAn?$AAt?$AAa?$AAb?$AAl@ DB 'v'
	DB	00H, 'e', 00H, 'c', 00H, 't', 00H, 'o', 00H, 'r', 00H, ' ', 00H
	DB	'i', 00H, 't', 00H, 'e', 00H, 'r', 00H, 'a', 00H, 't', 00H, 'o'
	DB	00H, 'r', 00H, ' ', 00H, 'n', 00H, 'o', 00H, 't', 00H, ' ', 00H
	DB	'i', 00H, 'n', 00H, 'c', 00H, 'r', 00H, 'e', 00H, 'm', 00H, 'e'
	DB	00H, 'n', 00H, 't', 00H, 'a', 00H, 'b', 00H, 'l', 00H, 'e', 00H
	DB	00H, 00H					; `string'
CONST	ENDS
;	COMDAT ??_C@_1IM@LECEOODI@?$AAC?$AA?3?$AA?2?$AAP?$AAr?$AAo?$AAg?$AAr?$AAa?$AAm?$AA?5?$AAF?$AAi?$AAl?$AAe?$AAs?$AA?5?$AA?$CI?$AAx?$AA8?$AA6?$AA?$CJ?$AA?2?$AAM?$AAi?$AAc?$AAr?$AAo?$AAs?$AAo?$AAf?$AAt@
CONST	SEGMENT
??_C@_1IM@LECEOODI@?$AAC?$AA?3?$AA?2?$AAP?$AAr?$AAo?$AAg?$AAr?$AAa?$AAm?$AA?5?$AAF?$AAi?$AAl?$AAe?$AAs?$AA?5?$AA?$CI?$AAx?$AA8?$AA6?$AA?$CJ?$AA?2?$AAM?$AAi?$AAc?$AAr?$AAo?$AAs?$AAo?$AAf?$AAt@ DB 'C'
	DB	00H, ':', 00H, '\', 00H, 'P', 00H, 'r', 00H, 'o', 00H, 'g', 00H
	DB	'r', 00H, 'a', 00H, 'm', 00H, ' ', 00H, 'F', 00H, 'i', 00H, 'l'
	DB	00H, 'e', 00H, 's', 00H, ' ', 00H, '(', 00H, 'x', 00H, '8', 00H
	DB	'6', 00H, ')', 00H, '\', 00H, 'M', 00H, 'i', 00H, 'c', 00H, 'r'
	DB	00H, 'o', 00H, 's', 00H, 'o', 00H, 'f', 00H, 't', 00H, ' ', 00H
	DB	'V', 00H, 'i', 00H, 's', 00H, 'u', 00H, 'a', 00H, 'l', 00H, ' '
	DB	00H, 'S', 00H, 't', 00H, 'u', 00H, 'd', 00H, 'i', 00H, 'o', 00H
	DB	' ', 00H, '1', 00H, '4', 00H, '.', 00H, '0', 00H, '\', 00H, 'V'
	DB	00H, 'C', 00H, '\', 00H, 'i', 00H, 'n', 00H, 'c', 00H, 'l', 00H
	DB	'u', 00H, 'd', 00H, 'e', 00H, '\', 00H, 'v', 00H, 'e', 00H, 'c'
	DB	00H, 't', 00H, 'o', 00H, 'r', 00H, 00H, 00H	; `string'
CONST	ENDS
;	COMDAT ??_C@_1FE@EKNHDPMB@?$AA0?$AA?5?$AA?$CG?$AA?$CG?$AA?5?$AA?$CC?$AA?$DM?$AAF?$AAz?$AAO?$AAR?$AA?3?$AA?3?$AAO?$AAR?$AAw?$AAi?$AAt?$AAh?$AAD?$AAO?$AAM?$AA?$DO?$AA?3?$AA?5?$AAi?$AAn?$AAv?$AAa?$AAl?$AAi?$AAd@
CONST	SEGMENT
??_C@_1FE@EKNHDPMB@?$AA0?$AA?5?$AA?$CG?$AA?$CG?$AA?5?$AA?$CC?$AA?$DM?$AAF?$AAz?$AAO?$AAR?$AA?3?$AA?3?$AAO?$AAR?$AAw?$AAi?$AAt?$AAh?$AAD?$AAO?$AAM?$AA?$DO?$AA?3?$AA?5?$AAi?$AAn?$AAv?$AAa?$AAl?$AAi?$AAd@ DB '0'
	DB	00H, ' ', 00H, '&', 00H, '&', 00H, ' ', 00H, '"', 00H, '<', 00H
	DB	'F', 00H, 'z', 00H, 'O', 00H, 'R', 00H, ':', 00H, ':', 00H, 'O'
	DB	00H, 'R', 00H, 'w', 00H, 'i', 00H, 't', 00H, 'h', 00H, 'D', 00H
	DB	'O', 00H, 'M', 00H, '>', 00H, ':', 00H, ' ', 00H, 'i', 00H, 'n'
	DB	00H, 'v', 00H, 'a', 00H, 'l', 00H, 'i', 00H, 'd', 00H, ' ', 00H
	DB	'c', 00H, 'o', 00H, 'n', 00H, 't', 00H, 'e', 00H, 'x', 00H, 't'
	DB	00H, '"', 00H, 00H, 00H			; `string'
CONST	ENDS
;	COMDAT ??_C@_1FC@EJGEACIH@?$AA0?$AA?5?$AA?$CG?$AA?$CG?$AA?5?$AA?$CC?$AA?$DM?$AAF?$AAz?$AAO?$AAR?$AA?3?$AA?3?$AAC?$AAl?$AAe?$AAa?$AAr?$AAD?$AAO?$AAM?$AA?$DO?$AA?3?$AA?5?$AAi?$AAn?$AAv?$AAa?$AAl?$AAi?$AAd?$AA?5@
CONST	SEGMENT
??_C@_1FC@EJGEACIH@?$AA0?$AA?5?$AA?$CG?$AA?$CG?$AA?5?$AA?$CC?$AA?$DM?$AAF?$AAz?$AAO?$AAR?$AA?3?$AA?3?$AAC?$AAl?$AAe?$AAa?$AAr?$AAD?$AAO?$AAM?$AA?$DO?$AA?3?$AA?5?$AAi?$AAn?$AAv?$AAa?$AAl?$AAi?$AAd?$AA?5@ DB '0'
	DB	00H, ' ', 00H, '&', 00H, '&', 00H, ' ', 00H, '"', 00H, '<', 00H
	DB	'F', 00H, 'z', 00H, 'O', 00H, 'R', 00H, ':', 00H, ':', 00H, 'C'
	DB	00H, 'l', 00H, 'e', 00H, 'a', 00H, 'r', 00H, 'D', 00H, 'O', 00H
	DB	'M', 00H, '>', 00H, ':', 00H, ' ', 00H, 'i', 00H, 'n', 00H, 'v'
	DB	00H, 'a', 00H, 'l', 00H, 'i', 00H, 'd', 00H, ' ', 00H, 'c', 00H
	DB	'o', 00H, 'n', 00H, 't', 00H, 'e', 00H, 'x', 00H, 't', 00H, '"'
	DB	00H, 00H, 00H				; `string'
CONST	ENDS
;	COMDAT ??_C@_1BAK@KLDFNOCP@?$AAg?$AA?3?$AA?2?$AAd?$AAo?$AAo?$AAm?$AA?2?$AAn?$AAe?$AAw?$AA?5?$AAk?$AAi?$AAn?$AAg?$AAd?$AAo?$AAm?$AA?2?$AAg?$AAa?$AAm?$AAe?$AA?5?$AAd?$AAe?$AAv?$AAe?$AAl?$AAo?$AAp@
CONST	SEGMENT
??_C@_1BAK@KLDFNOCP@?$AAg?$AA?3?$AA?2?$AAd?$AAo?$AAo?$AAm?$AA?2?$AAn?$AAe?$AAw?$AA?5?$AAk?$AAi?$AAn?$AAg?$AAd?$AAo?$AAm?$AA?2?$AAg?$AAa?$AAm?$AAe?$AA?5?$AAd?$AAe?$AAv?$AAe?$AAl?$AAo?$AAp@ DB 'g'
	DB	00H, ':', 00H, '\', 00H, 'd', 00H, 'o', 00H, 'o', 00H, 'm', 00H
	DB	'\', 00H, 'n', 00H, 'e', 00H, 'w', 00H, ' ', 00H, 'k', 00H, 'i'
	DB	00H, 'n', 00H, 'g', 00H, 'd', 00H, 'o', 00H, 'm', 00H, '\', 00H
	DB	'g', 00H, 'a', 00H, 'm', 00H, 'e', 00H, ' ', 00H, 'd', 00H, 'e'
	DB	00H, 'v', 00H, 'e', 00H, 'l', 00H, 'o', 00H, 'p', 00H, 'm', 00H
	DB	'e', 00H, 'n', 00H, 't', 00H, ' ', 00H, '[', 00H, 't', 00H, 'o'
	DB	00H, 'r', 00H, 'r', 00H, 'e', 00H, 'n', 00H, 't', 00H, 's', 00H
	DB	'.', 00H, 'r', 00H, 'u', 00H, ']', 00H, '\', 00H, 'a', 00H, 'i'
	DB	00H, '\', 00H, 'p', 00H, 'r', 00H, 'o', 00H, 'g', 00H, 'r', 00H
	DB	'a', 00H, 'm', 00H, 'm', 00H, 'i', 00H, 'n', 00H, 'g', 00H, ' '
	DB	00H, 'g', 00H, 'a', 00H, 'm', 00H, 'e', 00H, ' ', 00H, 'a', 00H
	DB	'i', 00H, ' ', 00H, 'b', 00H, 'y', 00H, ' ', 00H, 'e', 00H, 'x'
	DB	00H, 'a', 00H, 'm', 00H, 'p', 00H, 'l', 00H, 'e', 00H, '\', 00H
	DB	'b', 00H, 'u', 00H, 'c', 00H, 'k', 00H, 'l', 00H, 'a', 00H, 'n'
	DB	00H, 'd', 00H, '_', 00H, 'a', 00H, 'i', 00H, 's', 00H, 'o', 00H
	DB	'u', 00H, 'r', 00H, 'c', 00H, 'e', 00H, '\', 00H, 'c', 00H, 'o'
	DB	00H, 'm', 00H, 'm', 00H, 'o', 00H, 'n', 00H, '\', 00H, 'f', 00H
	DB	'u', 00H, 'z', 00H, 'z', 00H, 'y', 00H, '\', 00H, 'F', 00H, 'u'
	DB	00H, 'z', 00H, 'z', 00H, 'y', 00H, 'O', 00H, 'p', 00H, 'e', 00H
	DB	'r', 00H, 'a', 00H, 't', 00H, 'o', 00H, 'r', 00H, 's', 00H, '.'
	DB	00H, 'h', 00H, 00H, 00H			; `string'
CONST	ENDS
;	COMDAT ??_7FzOR@@6B@
CONST	SEGMENT
??_7FzOR@@6B@ DD FLAT:??_R4FzOR@@6B@			; FzOR::`vftable'
	DD	FLAT:??_EFzOR@@UAEPAXI@Z
	DD	FLAT:?Clone@FzOR@@UBEPAVFuzzyTerm@@XZ
	DD	FLAT:?GetDOM@FzOR@@UBENXZ
	DD	FLAT:?ClearDOM@FzOR@@UAEXXZ
	DD	FLAT:?ORwithDOM@FzOR@@UAEXN@Z
CONST	ENDS
;	COMDAT ??_7FzAND@@6B@
CONST	SEGMENT
??_7FzAND@@6B@ DD FLAT:??_R4FzAND@@6B@			; FzAND::`vftable'
	DD	FLAT:??_EFzAND@@UAEPAXI@Z
	DD	FLAT:?Clone@FzAND@@UBEPAVFuzzyTerm@@XZ
	DD	FLAT:?GetDOM@FzAND@@UBENXZ
	DD	FLAT:?ClearDOM@FzAND@@UAEXXZ
	DD	FLAT:?ORwithDOM@FzAND@@UAEXN@Z
CONST	ENDS
;	COMDAT ??_7FuzzyTerm@@6B@
CONST	SEGMENT
??_7FuzzyTerm@@6B@ DD FLAT:??_R4FuzzyTerm@@6B@		; FuzzyTerm::`vftable'
	DD	FLAT:??_EFuzzyTerm@@UAEPAXI@Z
	DD	FLAT:__purecall
	DD	FLAT:__purecall
	DD	FLAT:__purecall
	DD	FLAT:__purecall
CONST	ENDS
;	COMDAT ??_C@_1GI@DHJGPFNI@?$AA?$CC?$AA_?$AAP?$AAt?$AAr?$AA_?$AAu?$AAs?$AAe?$AAr?$AA?5?$AA?9?$AA?5?$AA_?$AAP?$AAt?$AAr?$AA_?$AAc?$AAo?$AAn?$AAt?$AAa?$AAi?$AAn?$AAe?$AAr?$AA?5?$AA?$DM?$AA?$DN?$AA?5?$AA_@
CONST	SEGMENT
??_C@_1GI@DHJGPFNI@?$AA?$CC?$AA_?$AAP?$AAt?$AAr?$AA_?$AAu?$AAs?$AAe?$AAr?$AA?5?$AA?9?$AA?5?$AA_?$AAP?$AAt?$AAr?$AA_?$AAc?$AAo?$AAn?$AAt?$AAa?$AAi?$AAn?$AAe?$AAr?$AA?5?$AA?$DM?$AA?$DN?$AA?5?$AA_@ DB '"'
	DB	00H, '_', 00H, 'P', 00H, 't', 00H, 'r', 00H, '_', 00H, 'u', 00H
	DB	's', 00H, 'e', 00H, 'r', 00H, ' ', 00H, '-', 00H, ' ', 00H, '_'
	DB	00H, 'P', 00H, 't', 00H, 'r', 00H, '_', 00H, 'c', 00H, 'o', 00H
	DB	'n', 00H, 't', 00H, 'a', 00H, 'i', 00H, 'n', 00H, 'e', 00H, 'r'
	DB	00H, ' ', 00H, '<', 00H, '=', 00H, ' ', 00H, '_', 00H, 'N', 00H
	DB	'O', 00H, 'N', 00H, '_', 00H, 'U', 00H, 'S', 00H, 'E', 00H, 'R'
	DB	00H, '_', 00H, 'S', 00H, 'I', 00H, 'Z', 00H, 'E', 00H, '"', 00H
	DB	' ', 00H, '&', 00H, '&', 00H, ' ', 00H, '0', 00H, 00H, 00H ; `string'
CONST	ENDS
;	COMDAT ??_C@_0CN@BLHJCAL@_Ptr_user?5?9?5_Ptr_container?5?$DM?$DN?5_N@
CONST	SEGMENT
??_C@_0CN@BLHJCAL@_Ptr_user?5?9?5_Ptr_container?5?$DM?$DN?5_N@ DB '_Ptr_u'
	DB	'ser - _Ptr_container <= _NON_USER_SIZE', 00H ; `string'
CONST	ENDS
;	COMDAT ??_C@_1HA@NAPGMHAO@?$AA?$CC?$AA2?$AA?5?$AA?$CK?$AA?5?$AAs?$AAi?$AAz?$AAe?$AAo?$AAf?$AA?$CI?$AAv?$AAo?$AAi?$AAd?$AA?5?$AA?$CK?$AA?$CJ?$AA?5?$AA?$DM?$AA?$DN?$AA?5?$AA_?$AAP?$AAt?$AAr?$AA_?$AAu?$AAs?$AAe?$AAr@
CONST	SEGMENT
??_C@_1HA@NAPGMHAO@?$AA?$CC?$AA2?$AA?5?$AA?$CK?$AA?5?$AAs?$AAi?$AAz?$AAe?$AAo?$AAf?$AA?$CI?$AAv?$AAo?$AAi?$AAd?$AA?5?$AA?$CK?$AA?$CJ?$AA?5?$AA?$DM?$AA?$DN?$AA?5?$AA_?$AAP?$AAt?$AAr?$AA_?$AAu?$AAs?$AAe?$AAr@ DB '"'
	DB	00H, '2', 00H, ' ', 00H, '*', 00H, ' ', 00H, 's', 00H, 'i', 00H
	DB	'z', 00H, 'e', 00H, 'o', 00H, 'f', 00H, '(', 00H, 'v', 00H, 'o'
	DB	00H, 'i', 00H, 'd', 00H, ' ', 00H, '*', 00H, ')', 00H, ' ', 00H
	DB	'<', 00H, '=', 00H, ' ', 00H, '_', 00H, 'P', 00H, 't', 00H, 'r'
	DB	00H, '_', 00H, 'u', 00H, 's', 00H, 'e', 00H, 'r', 00H, ' ', 00H
	DB	'-', 00H, ' ', 00H, '_', 00H, 'P', 00H, 't', 00H, 'r', 00H, '_'
	DB	00H, 'c', 00H, 'o', 00H, 'n', 00H, 't', 00H, 'a', 00H, 'i', 00H
	DB	'n', 00H, 'e', 00H, 'r', 00H, '"', 00H, ' ', 00H, '&', 00H, '&'
	DB	00H, ' ', 00H, '0', 00H, 00H, 00H		; `string'
CONST	ENDS
;	COMDAT ??_C@_0DB@GLFJLNCE@2?5?$CK?5sizeof?$CIvoid?5?$CK?$CJ?5?$DM?$DN?5_Ptr_user?5@
CONST	SEGMENT
??_C@_0DB@GLFJLNCE@2?5?$CK?5sizeof?$CIvoid?5?$CK?$CJ?5?$DM?$DN?5_Ptr_user?5@ DB '2'
	DB	' * sizeof(void *) <= _Ptr_user - _Ptr_container', 00H ; `string'
CONST	ENDS
;	COMDAT ??_C@_1EE@PDHAHDDC@?$AA?$CC?$AA_?$AAP?$AAt?$AAr?$AA_?$AAc?$AAo?$AAn?$AAt?$AAa?$AAi?$AAn?$AAe?$AAr?$AA?5?$AA?$DM?$AA?5?$AA_?$AAP?$AAt?$AAr?$AA_?$AAu?$AAs?$AAe?$AAr?$AA?$CC?$AA?5?$AA?$CG?$AA?$CG?$AA?5@
CONST	SEGMENT
??_C@_1EE@PDHAHDDC@?$AA?$CC?$AA_?$AAP?$AAt?$AAr?$AA_?$AAc?$AAo?$AAn?$AAt?$AAa?$AAi?$AAn?$AAe?$AAr?$AA?5?$AA?$DM?$AA?5?$AA_?$AAP?$AAt?$AAr?$AA_?$AAu?$AAs?$AAe?$AAr?$AA?$CC?$AA?5?$AA?$CG?$AA?$CG?$AA?5@ DB '"'
	DB	00H, '_', 00H, 'P', 00H, 't', 00H, 'r', 00H, '_', 00H, 'c', 00H
	DB	'o', 00H, 'n', 00H, 't', 00H, 'a', 00H, 'i', 00H, 'n', 00H, 'e'
	DB	00H, 'r', 00H, ' ', 00H, '<', 00H, ' ', 00H, '_', 00H, 'P', 00H
	DB	't', 00H, 'r', 00H, '_', 00H, 'u', 00H, 's', 00H, 'e', 00H, 'r'
	DB	00H, '"', 00H, ' ', 00H, '&', 00H, '&', 00H, ' ', 00H, '0', 00H
	DB	00H, 00H					; `string'
CONST	ENDS
;	COMDAT ??_C@_0BL@OCKMEJON@_Ptr_container?5?$DM?5_Ptr_user?$AA@
CONST	SEGMENT
??_C@_0BL@OCKMEJON@_Ptr_container?5?$DM?5_Ptr_user?$AA@ DB '_Ptr_containe'
	DB	'r < _Ptr_user', 00H				; `string'
CONST	ENDS
;	COMDAT ??_C@_1JO@EKLKIEHP@?$AA?$CC?$AAr?$AAe?$AAi?$AAn?$AAt?$AAe?$AAr?$AAp?$AAr?$AAe?$AAt?$AA_?$AAc?$AAa?$AAs?$AAt?$AA?$DM?$AAu?$AAi?$AAn?$AAt?$AAp?$AAt?$AAr?$AA_?$AAt?$AA?5?$AA?$CK?$AA?$DO?$AA?$CI?$AA_@
CONST	SEGMENT
??_C@_1JO@EKLKIEHP@?$AA?$CC?$AAr?$AAe?$AAi?$AAn?$AAt?$AAe?$AAr?$AAp?$AAr?$AAe?$AAt?$AA_?$AAc?$AAa?$AAs?$AAt?$AA?$DM?$AAu?$AAi?$AAn?$AAt?$AAp?$AAt?$AAr?$AA_?$AAt?$AA?5?$AA?$CK?$AA?$DO?$AA?$CI?$AA_@ DB '"'
	DB	00H, 'r', 00H, 'e', 00H, 'i', 00H, 'n', 00H, 't', 00H, 'e', 00H
	DB	'r', 00H, 'p', 00H, 'r', 00H, 'e', 00H, 't', 00H, '_', 00H, 'c'
	DB	00H, 'a', 00H, 's', 00H, 't', 00H, '<', 00H, 'u', 00H, 'i', 00H
	DB	'n', 00H, 't', 00H, 'p', 00H, 't', 00H, 'r', 00H, '_', 00H, 't'
	DB	00H, ' ', 00H, '*', 00H, '>', 00H, '(', 00H, '_', 00H, 'P', 00H
	DB	't', 00H, 'r', 00H, '_', 00H, 'p', 00H, 't', 00H, 'r', 00H, ')'
	DB	00H, '[', 00H, '-', 00H, '1', 00H, ']', 00H, ' ', 00H, '=', 00H
	DB	'=', 00H, ' ', 00H, '_', 00H, 'B', 00H, 'I', 00H, 'G', 00H, '_'
	DB	00H, 'A', 00H, 'L', 00H, 'L', 00H, 'O', 00H, 'C', 00H, 'A', 00H
	DB	'T', 00H, 'I', 00H, 'O', 00H, 'N', 00H, '_', 00H, 'S', 00H, 'E'
	DB	00H, 'N', 00H, 'T', 00H, 'I', 00H, 'N', 00H, 'E', 00H, 'L', 00H
	DB	'"', 00H, ' ', 00H, '&', 00H, '&', 00H, ' ', 00H, '0', 00H, 00H
	DB	00H						; `string'
CONST	ENDS
;	COMDAT ??_C@_0EI@NOJHEJCJ@reinterpret_cast?$DMuintptr_t?5?$CK?$DO?$CI_P@
CONST	SEGMENT
??_C@_0EI@NOJHEJCJ@reinterpret_cast?$DMuintptr_t?5?$CK?$DO?$CI_P@ DB 'rei'
	DB	'nterpret_cast<uintptr_t *>(_Ptr_ptr)[-1] == _BIG_ALLOCATION_S'
	DB	'ENTINEL', 00H				; `string'
CONST	ENDS
;	COMDAT ??_C@_1HE@CDMBFOKC@?$AA?$CC?$AA?$CI?$AA_?$AAP?$AAt?$AAr?$AA_?$AAu?$AAs?$AAe?$AAr?$AA?5?$AA?$CG?$AA?5?$AA?$CI?$AA_?$AAB?$AAI?$AAG?$AA_?$AAA?$AAL?$AAL?$AAO?$AAC?$AAA?$AAT?$AAI?$AAO?$AAN?$AA_?$AAA@
CONST	SEGMENT
??_C@_1HE@CDMBFOKC@?$AA?$CC?$AA?$CI?$AA_?$AAP?$AAt?$AAr?$AA_?$AAu?$AAs?$AAe?$AAr?$AA?5?$AA?$CG?$AA?5?$AA?$CI?$AA_?$AAB?$AAI?$AAG?$AA_?$AAA?$AAL?$AAL?$AAO?$AAC?$AAA?$AAT?$AAI?$AAO?$AAN?$AA_?$AAA@ DB '"'
	DB	00H, '(', 00H, '_', 00H, 'P', 00H, 't', 00H, 'r', 00H, '_', 00H
	DB	'u', 00H, 's', 00H, 'e', 00H, 'r', 00H, ' ', 00H, '&', 00H, ' '
	DB	00H, '(', 00H, '_', 00H, 'B', 00H, 'I', 00H, 'G', 00H, '_', 00H
	DB	'A', 00H, 'L', 00H, 'L', 00H, 'O', 00H, 'C', 00H, 'A', 00H, 'T'
	DB	00H, 'I', 00H, 'O', 00H, 'N', 00H, '_', 00H, 'A', 00H, 'L', 00H
	DB	'I', 00H, 'G', 00H, 'N', 00H, 'M', 00H, 'E', 00H, 'N', 00H, 'T'
	DB	00H, ' ', 00H, '-', 00H, ' ', 00H, '1', 00H, ')', 00H, ')', 00H
	DB	' ', 00H, '=', 00H, '=', 00H, ' ', 00H, '0', 00H, '"', 00H, ' '
	DB	00H, '&', 00H, '&', 00H, ' ', 00H, '0', 00H, 00H, 00H ; `string'
CONST	ENDS
;	COMDAT ??_C@_0DD@GBGGGKGG@?$CI_Ptr_user?5?$CG?5?$CI_BIG_ALLOCATION_AL@
CONST	SEGMENT
??_C@_0DD@GBGGGKGG@?$CI_Ptr_user?5?$CG?5?$CI_BIG_ALLOCATION_AL@ DB '(_Ptr'
	DB	'_user & (_BIG_ALLOCATION_ALIGNMENT - 1)) == 0', 00H ; `string'
CONST	ENDS
;	COMDAT ??_C@_1CC@LOFJFFDB@?$AAs?$AAt?$AAd?$AA?3?$AA?3?$AA_?$AAD?$AAe?$AAa?$AAl?$AAl?$AAo?$AAc?$AAa?$AAt?$AAe?$AA?$AA@
CONST	SEGMENT
??_C@_1CC@LOFJFFDB@?$AAs?$AAt?$AAd?$AA?3?$AA?3?$AA_?$AAD?$AAe?$AAa?$AAl?$AAl?$AAo?$AAc?$AAa?$AAt?$AAe?$AA?$AA@ DB 's'
	DB	00H, 't', 00H, 'd', 00H, ':', 00H, ':', 00H, '_', 00H, 'D', 00H
	DB	'e', 00H, 'a', 00H, 'l', 00H, 'l', 00H, 'o', 00H, 'c', 00H, 'a'
	DB	00H, 't', 00H, 'e', 00H, 00H, 00H		; `string'
CONST	ENDS
;	COMDAT ??_C@_1EI@MLOBABC@?$AA?$CC?$AA_?$AAC?$AAo?$AAu?$AAn?$AAt?$AA?5?$AA?$DM?$AA?$DN?$AA?5?$AA?$CI?$AAs?$AAi?$AAz?$AAe?$AA_?$AAt?$AA?$CJ?$AA?$CI?$AA?9?$AA1?$AA?$CJ?$AA?5?$AA?1?$AA?5?$AA_?$AAS?$AAz?$AA?$CC?$AA?5?$AA?$CG@
CONST	SEGMENT
??_C@_1EI@MLOBABC@?$AA?$CC?$AA_?$AAC?$AAo?$AAu?$AAn?$AAt?$AA?5?$AA?$DM?$AA?$DN?$AA?5?$AA?$CI?$AAs?$AAi?$AAz?$AAe?$AA_?$AAt?$AA?$CJ?$AA?$CI?$AA?9?$AA1?$AA?$CJ?$AA?5?$AA?1?$AA?5?$AA_?$AAS?$AAz?$AA?$CC?$AA?5?$AA?$CG@ DB '"'
	DB	00H, '_', 00H, 'C', 00H, 'o', 00H, 'u', 00H, 'n', 00H, 't', 00H
	DB	' ', 00H, '<', 00H, '=', 00H, ' ', 00H, '(', 00H, 's', 00H, 'i'
	DB	00H, 'z', 00H, 'e', 00H, '_', 00H, 't', 00H, ')', 00H, '(', 00H
	DB	'-', 00H, '1', 00H, ')', 00H, ' ', 00H, '/', 00H, ' ', 00H, '_'
	DB	00H, 'S', 00H, 'z', 00H, '"', 00H, ' ', 00H, '&', 00H, '&', 00H
	DB	' ', 00H, '0', 00H, 00H, 00H			; `string'
CONST	ENDS
;	COMDAT ??_C@_0BN@HMCJOMKN@_Count?5?$DM?$DN?5?$CIsize_t?$CJ?$CI?91?$CJ?5?1?5_Sz?$AA@
CONST	SEGMENT
??_C@_0BN@HMCJOMKN@_Count?5?$DM?$DN?5?$CIsize_t?$CJ?$CI?91?$CJ?5?1?5_Sz?$AA@ DB '_'
	DB	'Count <= (size_t)(-1) / _Sz', 00H		; `string'
CONST	ENDS
;	COMDAT ??_C@_1CC@GKJLLHIM@?$AA?$CC?$AA_?$AAP?$AAt?$AAr?$AA?5?$AA?$CB?$AA?$DN?$AA?5?$AA0?$AA?$CC?$AA?5?$AA?$CG?$AA?$CG?$AA?5?$AA0?$AA?$AA@
CONST	SEGMENT
??_C@_1CC@GKJLLHIM@?$AA?$CC?$AA_?$AAP?$AAt?$AAr?$AA?5?$AA?$CB?$AA?$DN?$AA?5?$AA0?$AA?$CC?$AA?5?$AA?$CG?$AA?$CG?$AA?5?$AA0?$AA?$AA@ DB '"'
	DB	00H, '_', 00H, 'P', 00H, 't', 00H, 'r', 00H, ' ', 00H, '!', 00H
	DB	'=', 00H, ' ', 00H, '0', 00H, '"', 00H, ' ', 00H, '&', 00H, '&'
	DB	00H, ' ', 00H, '0', 00H, 00H, 00H		; `string'
CONST	ENDS
;	COMDAT ??_C@_09GLJCAGLP@_Ptr?5?$CB?$DN?50?$AA@
CONST	SEGMENT
??_C@_09GLJCAGLP@_Ptr?5?$CB?$DN?50?$AA@ DB '_Ptr != 0', 00H ; `string'
CONST	ENDS
;	COMDAT ??_C@_1CG@JNLFBNGN@?$AA?$CC?$AAi?$AAn?$AAv?$AAa?$AAl?$AAi?$AAd?$AA?5?$AAa?$AAr?$AAg?$AAu?$AAm?$AAe?$AAn?$AAt?$AA?$CC?$AA?$AA@
CONST	SEGMENT
??_C@_1CG@JNLFBNGN@?$AA?$CC?$AAi?$AAn?$AAv?$AAa?$AAl?$AAi?$AAd?$AA?5?$AAa?$AAr?$AAg?$AAu?$AAm?$AAe?$AAn?$AAt?$AA?$CC?$AA?$AA@ DB '"'
	DB	00H, 'i', 00H, 'n', 00H, 'v', 00H, 'a', 00H, 'l', 00H, 'i', 00H
	DB	'd', 00H, ' ', 00H, 'a', 00H, 'r', 00H, 'g', 00H, 'u', 00H, 'm'
	DB	00H, 'e', 00H, 'n', 00H, 't', 00H, '"', 00H, 00H, 00H ; `string'
CONST	ENDS
;	COMDAT ??_C@_1BO@NKFMJPA@?$AAs?$AAt?$AAd?$AA?3?$AA?3?$AA_?$AAA?$AAl?$AAl?$AAo?$AAc?$AAa?$AAt?$AAe?$AA?$AA@
CONST	SEGMENT
??_C@_1BO@NKFMJPA@?$AAs?$AAt?$AAd?$AA?3?$AA?3?$AA_?$AAA?$AAl?$AAl?$AAo?$AAc?$AAa?$AAt?$AAe?$AA?$AA@ DB 's'
	DB	00H, 't', 00H, 'd', 00H, ':', 00H, ':', 00H, '_', 00H, 'A', 00H
	DB	'l', 00H, 'l', 00H, 'o', 00H, 'c', 00H, 'a', 00H, 't', 00H, 'e'
	DB	00H, 00H, 00H				; `string'
CONST	ENDS
;	COMDAT ??_C@_1JA@HEEMAOGC@?$AAC?$AA?3?$AA?2?$AAP?$AAr?$AAo?$AAg?$AAr?$AAa?$AAm?$AA?5?$AAF?$AAi?$AAl?$AAe?$AAs?$AA?5?$AA?$CI?$AAx?$AA8?$AA6?$AA?$CJ?$AA?2?$AAM?$AAi?$AAc?$AAr?$AAo?$AAs?$AAo?$AAf?$AAt@
CONST	SEGMENT
??_C@_1JA@HEEMAOGC@?$AAC?$AA?3?$AA?2?$AAP?$AAr?$AAo?$AAg?$AAr?$AAa?$AAm?$AA?5?$AAF?$AAi?$AAl?$AAe?$AAs?$AA?5?$AA?$CI?$AAx?$AA8?$AA6?$AA?$CJ?$AA?2?$AAM?$AAi?$AAc?$AAr?$AAo?$AAs?$AAo?$AAf?$AAt@ DB 'C'
	DB	00H, ':', 00H, '\', 00H, 'P', 00H, 'r', 00H, 'o', 00H, 'g', 00H
	DB	'r', 00H, 'a', 00H, 'm', 00H, ' ', 00H, 'F', 00H, 'i', 00H, 'l'
	DB	00H, 'e', 00H, 's', 00H, ' ', 00H, '(', 00H, 'x', 00H, '8', 00H
	DB	'6', 00H, ')', 00H, '\', 00H, 'M', 00H, 'i', 00H, 'c', 00H, 'r'
	DB	00H, 'o', 00H, 's', 00H, 'o', 00H, 'f', 00H, 't', 00H, ' ', 00H
	DB	'V', 00H, 'i', 00H, 's', 00H, 'u', 00H, 'a', 00H, 'l', 00H, ' '
	DB	00H, 'S', 00H, 't', 00H, 'u', 00H, 'd', 00H, 'i', 00H, 'o', 00H
	DB	' ', 00H, '1', 00H, '4', 00H, '.', 00H, '0', 00H, '\', 00H, 'V'
	DB	00H, 'C', 00H, '\', 00H, 'i', 00H, 'n', 00H, 'c', 00H, 'l', 00H
	DB	'u', 00H, 'd', 00H, 'e', 00H, '\', 00H, 'x', 00H, 'm', 00H, 'e'
	DB	00H, 'm', 00H, 'o', 00H, 'r', 00H, 'y', 00H, '0', 00H, 00H, 00H ; `string'
CONST	ENDS
;	COMDAT ??_C@_17CNPHIMPH@?$AA?$CF?$AAl?$AAs?$AA?$AA@
CONST	SEGMENT
??_C@_17CNPHIMPH@?$AA?$CF?$AAl?$AAs?$AA?$AA@ DB '%', 00H, 'l', 00H, 's', 00H
	DB	00H, 00H					; `string'
CONST	ENDS
;	COMDAT ??_C@_1DG@HGDKEBPG@?$AA?$CC?$AA_?$AAP?$AAt?$AAr?$AA_?$AAc?$AAo?$AAn?$AAt?$AAa?$AAi?$AAn?$AAe?$AAr?$AA?5?$AA?$CB?$AA?$DN?$AA?5?$AA0?$AA?$CC?$AA?5?$AA?$CG?$AA?$CG?$AA?5?$AA0?$AA?$AA@
CONST	SEGMENT
??_C@_1DG@HGDKEBPG@?$AA?$CC?$AA_?$AAP?$AAt?$AAr?$AA_?$AAc?$AAo?$AAn?$AAt?$AAa?$AAi?$AAn?$AAe?$AAr?$AA?5?$AA?$CB?$AA?$DN?$AA?5?$AA0?$AA?$CC?$AA?5?$AA?$CG?$AA?$CG?$AA?5?$AA0?$AA?$AA@ DB '"'
	DB	00H, '_', 00H, 'P', 00H, 't', 00H, 'r', 00H, '_', 00H, 'c', 00H
	DB	'o', 00H, 'n', 00H, 't', 00H, 'a', 00H, 'i', 00H, 'n', 00H, 'e'
	DB	00H, 'r', 00H, ' ', 00H, '!', 00H, '=', 00H, ' ', 00H, '0', 00H
	DB	'"', 00H, ' ', 00H, '&', 00H, '&', 00H, ' ', 00H, '0', 00H, 00H
	DB	00H						; `string'
CONST	ENDS
;	COMDAT ??_C@_0BE@LMNLACIC@_Ptr_container?5?$CB?$DN?50?$AA@
CONST	SEGMENT
??_C@_0BE@LMNLACIC@_Ptr_container?5?$CB?$DN?50?$AA@ DB '_Ptr_container !='
	DB	' 0', 00H					; `string'
CONST	ENDS
;	COMDAT ??_C@_1DC@POOIKBAO@?$AAI?$AAT?$AAE?$AAR?$AAA?$AAT?$AAO?$AAR?$AA?5?$AAL?$AAI?$AAS?$AAT?$AA?5?$AAC?$AAO?$AAR?$AAR?$AAU?$AAP?$AAT?$AAE?$AAD?$AA?$CB?$AA?$AA@
CONST	SEGMENT
??_C@_1DC@POOIKBAO@?$AAI?$AAT?$AAE?$AAR?$AAA?$AAT?$AAO?$AAR?$AA?5?$AAL?$AAI?$AAS?$AAT?$AA?5?$AAC?$AAO?$AAR?$AAR?$AAU?$AAP?$AAT?$AAE?$AAD?$AA?$CB?$AA?$AA@ DB 'I'
	DB	00H, 'T', 00H, 'E', 00H, 'R', 00H, 'A', 00H, 'T', 00H, 'O', 00H
	DB	'R', 00H, ' ', 00H, 'L', 00H, 'I', 00H, 'S', 00H, 'T', 00H, ' '
	DB	00H, 'C', 00H, 'O', 00H, 'R', 00H, 'R', 00H, 'U', 00H, 'P', 00H
	DB	'T', 00H, 'E', 00H, 'D', 00H, '!', 00H, 00H, 00H ; `string'
CONST	ENDS
;	COMDAT ??_C@_1JA@IJKHNLMB@?$AAC?$AA?3?$AA?2?$AAP?$AAr?$AAo?$AAg?$AAr?$AAa?$AAm?$AA?5?$AAF?$AAi?$AAl?$AAe?$AAs?$AA?5?$AA?$CI?$AAx?$AA8?$AA6?$AA?$CJ?$AA?2?$AAM?$AAi?$AAc?$AAr?$AAo?$AAs?$AAo?$AAf?$AAt@
CONST	SEGMENT
??_C@_1JA@IJKHNLMB@?$AAC?$AA?3?$AA?2?$AAP?$AAr?$AAo?$AAg?$AAr?$AAa?$AAm?$AA?5?$AAF?$AAi?$AAl?$AAe?$AAs?$AA?5?$AA?$CI?$AAx?$AA8?$AA6?$AA?$CJ?$AA?2?$AAM?$AAi?$AAc?$AAr?$AAo?$AAs?$AAo?$AAf?$AAt@ DB 'C'
	DB	00H, ':', 00H, '\', 00H, 'P', 00H, 'r', 00H, 'o', 00H, 'g', 00H
	DB	'r', 00H, 'a', 00H, 'm', 00H, ' ', 00H, 'F', 00H, 'i', 00H, 'l'
	DB	00H, 'e', 00H, 's', 00H, ' ', 00H, '(', 00H, 'x', 00H, '8', 00H
	DB	'6', 00H, ')', 00H, '\', 00H, 'M', 00H, 'i', 00H, 'c', 00H, 'r'
	DB	00H, 'o', 00H, 's', 00H, 'o', 00H, 'f', 00H, 't', 00H, ' ', 00H
	DB	'V', 00H, 'i', 00H, 's', 00H, 'u', 00H, 'a', 00H, 'l', 00H, ' '
	DB	00H, 'S', 00H, 't', 00H, 'u', 00H, 'd', 00H, 'i', 00H, 'o', 00H
	DB	' ', 00H, '1', 00H, '4', 00H, '.', 00H, '0', 00H, '\', 00H, 'V'
	DB	00H, 'C', 00H, '\', 00H, 'i', 00H, 'n', 00H, 'c', 00H, 'l', 00H
	DB	'u', 00H, 'd', 00H, 'e', 00H, '\', 00H, 'x', 00H, 'u', 00H, 't'
	DB	00H, 'i', 00H, 'l', 00H, 'i', 00H, 't', 00H, 'y', 00H, 00H, 00H ; `string'
CONST	ENDS
;	COMDAT xdata$x
xdata$x	SEGMENT
__unwindtable$??0?$_Vector_const_iterator@V?$_Vector_val@U?$_Simple_types@PAVFuzzyTerm@@@std@@@std@@@std@@QAE@PAPAVFuzzyTerm@@PBU_Container_base12@1@@Z DD 0ffffffffH
	DD	FLAT:__unwindfunclet$??0?$_Vector_const_iterator@V?$_Vector_val@U?$_Simple_types@PAVFuzzyTerm@@@std@@@std@@@std@@QAE@PAPAVFuzzyTerm@@PBU_Container_base12@1@@Z$0
__ehfuncinfo$??0?$_Vector_const_iterator@V?$_Vector_val@U?$_Simple_types@PAVFuzzyTerm@@@std@@@std@@@std@@QAE@PAPAVFuzzyTerm@@PBU_Container_base12@1@@Z DD 019930522H
	DD	01H
	DD	FLAT:__unwindtable$??0?$_Vector_const_iterator@V?$_Vector_val@U?$_Simple_types@PAVFuzzyTerm@@@std@@@std@@@std@@QAE@PAPAVFuzzyTerm@@PBU_Container_base12@1@@Z
	DD	2 DUP(00H)
	DD	2 DUP(00H)
	DD	00H
	DD	01H
xdata$x	ENDS
;	COMDAT xdata$x
xdata$x	SEGMENT
__unwindtable$?Clone@FzOR@@UBEPAVFuzzyTerm@@XZ DD 0ffffffffH
	DD	FLAT:__unwindfunclet$?Clone@FzOR@@UBEPAVFuzzyTerm@@XZ$0
__ehfuncinfo$?Clone@FzOR@@UBEPAVFuzzyTerm@@XZ DD 019930522H
	DD	01H
	DD	FLAT:__unwindtable$?Clone@FzOR@@UBEPAVFuzzyTerm@@XZ
	DD	2 DUP(00H)
	DD	2 DUP(00H)
	DD	00H
	DD	01H
xdata$x	ENDS
;	COMDAT xdata$x
xdata$x	SEGMENT
__unwindtable$?Clone@FzAND@@UBEPAVFuzzyTerm@@XZ DD 0ffffffffH
	DD	FLAT:__unwindfunclet$?Clone@FzAND@@UBEPAVFuzzyTerm@@XZ$0
__ehfuncinfo$?Clone@FzAND@@UBEPAVFuzzyTerm@@XZ DD 019930522H
	DD	01H
	DD	FLAT:__unwindtable$?Clone@FzAND@@UBEPAVFuzzyTerm@@XZ
	DD	2 DUP(00H)
	DD	2 DUP(00H)
	DD	00H
	DD	01H
xdata$x	ENDS
xdata$x	SEGMENT
__unwindtable$??0FzOR@@QAE@AAVFuzzyTerm@@000@Z DD 0ffffffffH
	DD	FLAT:__unwindfunclet$??0FzOR@@QAE@AAVFuzzyTerm@@000@Z$0
	DD	00H
	DD	FLAT:__unwindfunclet$??0FzOR@@QAE@AAVFuzzyTerm@@000@Z$1
__unwindtable$??0FzOR@@QAE@AAVFuzzyTerm@@00@Z DD 0ffffffffH
	DD	FLAT:__unwindfunclet$??0FzOR@@QAE@AAVFuzzyTerm@@00@Z$0
	DD	00H
	DD	FLAT:__unwindfunclet$??0FzOR@@QAE@AAVFuzzyTerm@@00@Z$1
__unwindtable$??0FzOR@@QAE@AAVFuzzyTerm@@0@Z DD 0ffffffffH
	DD	FLAT:__unwindfunclet$??0FzOR@@QAE@AAVFuzzyTerm@@0@Z$0
	DD	00H
	DD	FLAT:__unwindfunclet$??0FzOR@@QAE@AAVFuzzyTerm@@0@Z$1
__unwindtable$??0FzAND@@QAE@AAVFuzzyTerm@@000@Z DD 0ffffffffH
	DD	FLAT:__unwindfunclet$??0FzAND@@QAE@AAVFuzzyTerm@@000@Z$0
	DD	00H
	DD	FLAT:__unwindfunclet$??0FzAND@@QAE@AAVFuzzyTerm@@000@Z$1
__unwindtable$??0FzAND@@QAE@AAVFuzzyTerm@@00@Z DD 0ffffffffH
	DD	FLAT:__unwindfunclet$??0FzAND@@QAE@AAVFuzzyTerm@@00@Z$0
	DD	00H
	DD	FLAT:__unwindfunclet$??0FzAND@@QAE@AAVFuzzyTerm@@00@Z$1
__unwindtable$??0FzAND@@QAE@AAVFuzzyTerm@@0@Z DD 0ffffffffH
	DD	FLAT:__unwindfunclet$??0FzAND@@QAE@AAVFuzzyTerm@@0@Z$0
	DD	00H
	DD	FLAT:__unwindfunclet$??0FzAND@@QAE@AAVFuzzyTerm@@0@Z$1
__unwindtable$?GetDOM@FzOR@@UBENXZ DD 0ffffffffH
	DD	FLAT:__unwindfunclet$?GetDOM@FzOR@@UBENXZ$0
	DD	00H
	DD	FLAT:__unwindfunclet$?GetDOM@FzOR@@UBENXZ$1
	DD	00H
	DD	FLAT:__unwindfunclet$?GetDOM@FzOR@@UBENXZ$2
__unwindtable$?ORwithDOM@FzAND@@UAEXN@Z DD 0ffffffffH
	DD	FLAT:__unwindfunclet$?ORwithDOM@FzAND@@UAEXN@Z$0
	DD	00H
	DD	FLAT:__unwindfunclet$?ORwithDOM@FzAND@@UAEXN@Z$1
	DD	00H
	DD	FLAT:__unwindfunclet$?ORwithDOM@FzAND@@UAEXN@Z$2
__unwindtable$?ClearDOM@FzAND@@UAEXXZ DD 0ffffffffH
	DD	FLAT:__unwindfunclet$?ClearDOM@FzAND@@UAEXXZ$0
	DD	00H
	DD	FLAT:__unwindfunclet$?ClearDOM@FzAND@@UAEXXZ$1
	DD	00H
	DD	FLAT:__unwindfunclet$?ClearDOM@FzAND@@UAEXXZ$2
__unwindtable$?GetDOM@FzAND@@UBENXZ DD 0ffffffffH
	DD	FLAT:__unwindfunclet$?GetDOM@FzAND@@UBENXZ$0
	DD	00H
	DD	FLAT:__unwindfunclet$?GetDOM@FzAND@@UBENXZ$1
	DD	00H
	DD	FLAT:__unwindfunclet$?GetDOM@FzAND@@UBENXZ$2
__ehfuncinfo$?GetDOM@FzOR@@UBENXZ DD 019930522H
	DD	03H
	DD	FLAT:__unwindtable$?GetDOM@FzOR@@UBENXZ
	DD	2 DUP(00H)
	DD	2 DUP(00H)
	DD	00H
	DD	01H
__ehfuncinfo$??0FzOR@@QAE@AAVFuzzyTerm@@000@Z DD 019930522H
	DD	02H
	DD	FLAT:__unwindtable$??0FzOR@@QAE@AAVFuzzyTerm@@000@Z
	DD	2 DUP(00H)
	DD	2 DUP(00H)
	DD	00H
	DD	01H
__ehfuncinfo$??0FzOR@@QAE@AAVFuzzyTerm@@00@Z DD 019930522H
	DD	02H
	DD	FLAT:__unwindtable$??0FzOR@@QAE@AAVFuzzyTerm@@00@Z
	DD	2 DUP(00H)
	DD	2 DUP(00H)
	DD	00H
	DD	01H
__ehfuncinfo$??0FzOR@@QAE@AAVFuzzyTerm@@0@Z DD 019930522H
	DD	02H
	DD	FLAT:__unwindtable$??0FzOR@@QAE@AAVFuzzyTerm@@0@Z
	DD	2 DUP(00H)
	DD	2 DUP(00H)
	DD	00H
	DD	01H
__ehfuncinfo$??0FzOR@@QAE@ABV0@@Z DD 019930522H
	DD	05H
	DD	FLAT:__unwindtable$??0FzOR@@QAE@ABV0@@Z
	DD	2 DUP(00H)
	DD	2 DUP(00H)
	DD	00H
	DD	01H
__ehfuncinfo$??1FzOR@@UAE@XZ DD 019930522H
	DD	00H
	DD	00H
	DD	2 DUP(00H)
	DD	2 DUP(00H)
	DD	00H
	DD	05H
__ehfuncinfo$?ORwithDOM@FzAND@@UAEXN@Z DD 019930522H
	DD	03H
	DD	FLAT:__unwindtable$?ORwithDOM@FzAND@@UAEXN@Z
	DD	2 DUP(00H)
	DD	2 DUP(00H)
	DD	00H
	DD	01H
__ehfuncinfo$?ClearDOM@FzAND@@UAEXXZ DD 019930522H
	DD	03H
	DD	FLAT:__unwindtable$?ClearDOM@FzAND@@UAEXXZ
	DD	2 DUP(00H)
	DD	2 DUP(00H)
	DD	00H
	DD	01H
__ehfuncinfo$?GetDOM@FzAND@@UBENXZ DD 019930522H
	DD	03H
	DD	FLAT:__unwindtable$?GetDOM@FzAND@@UBENXZ
	DD	2 DUP(00H)
	DD	2 DUP(00H)
	DD	00H
	DD	01H
__ehfuncinfo$??0FzAND@@QAE@AAVFuzzyTerm@@000@Z DD 019930522H
	DD	02H
	DD	FLAT:__unwindtable$??0FzAND@@QAE@AAVFuzzyTerm@@000@Z
	DD	2 DUP(00H)
	DD	2 DUP(00H)
	DD	00H
	DD	01H
__ehfuncinfo$??0FzAND@@QAE@AAVFuzzyTerm@@00@Z DD 019930522H
	DD	02H
	DD	FLAT:__unwindtable$??0FzAND@@QAE@AAVFuzzyTerm@@00@Z
	DD	2 DUP(00H)
	DD	2 DUP(00H)
	DD	00H
	DD	01H
__ehfuncinfo$??0FzAND@@QAE@AAVFuzzyTerm@@0@Z DD 019930522H
	DD	02H
	DD	FLAT:__unwindtable$??0FzAND@@QAE@AAVFuzzyTerm@@0@Z
	DD	2 DUP(00H)
	DD	2 DUP(00H)
	DD	00H
	DD	01H
__ehfuncinfo$??0FzAND@@QAE@ABV0@@Z DD 019930522H
	DD	05H
	DD	FLAT:__unwindtable$??0FzAND@@QAE@ABV0@@Z
	DD	2 DUP(00H)
	DD	2 DUP(00H)
	DD	00H
	DD	01H
__ehfuncinfo$??1FzAND@@UAE@XZ DD 019930522H
	DD	00H
	DD	00H
	DD	2 DUP(00H)
	DD	2 DUP(00H)
	DD	00H
	DD	05H
__unwindtable$??0FzOR@@QAE@ABV0@@Z DD 0ffffffffH
	DD	FLAT:__unwindfunclet$??0FzOR@@QAE@ABV0@@Z$0
	DD	00H
	DD	FLAT:__unwindfunclet$??0FzOR@@QAE@ABV0@@Z$1
	DD	01H
	DD	FLAT:__unwindfunclet$??0FzOR@@QAE@ABV0@@Z$2
	DD	02H
	DD	FLAT:__unwindfunclet$??0FzOR@@QAE@ABV0@@Z$3
	DD	02H
	DD	FLAT:__unwindfunclet$??0FzOR@@QAE@ABV0@@Z$4
__unwindtable$??0FzAND@@QAE@ABV0@@Z DD 0ffffffffH
	DD	FLAT:__unwindfunclet$??0FzAND@@QAE@ABV0@@Z$0
	DD	00H
	DD	FLAT:__unwindfunclet$??0FzAND@@QAE@ABV0@@Z$1
	DD	01H
	DD	FLAT:__unwindfunclet$??0FzAND@@QAE@ABV0@@Z$2
	DD	02H
	DD	FLAT:__unwindfunclet$??0FzAND@@QAE@ABV0@@Z$3
	DD	02H
	DD	FLAT:__unwindfunclet$??0FzAND@@QAE@ABV0@@Z$4
xdata$x	ENDS
;	COMDAT xdata$x
xdata$x	SEGMENT
__unwindtable$?_Orphan_range@?$vector@PAVFuzzyTerm@@V?$allocator@PAVFuzzyTerm@@@std@@@std@@IBEXPAPAVFuzzyTerm@@0@Z DD 0ffffffffH
	DD	FLAT:__unwindfunclet$?_Orphan_range@?$vector@PAVFuzzyTerm@@V?$allocator@PAVFuzzyTerm@@@std@@@std@@IBEXPAPAVFuzzyTerm@@0@Z$0
__ehfuncinfo$?_Orphan_range@?$vector@PAVFuzzyTerm@@V?$allocator@PAVFuzzyTerm@@@std@@@std@@IBEXPAPAVFuzzyTerm@@0@Z DD 019930522H
	DD	01H
	DD	FLAT:__unwindtable$?_Orphan_range@?$vector@PAVFuzzyTerm@@V?$allocator@PAVFuzzyTerm@@@std@@@std@@IBEXPAPAVFuzzyTerm@@0@Z
	DD	2 DUP(00H)
	DD	2 DUP(00H)
	DD	00H
	DD	01H
xdata$x	ENDS
;	COMDAT xdata$x
xdata$x	SEGMENT
__catchsym$?_Reallocate@?$vector@PAVFuzzyTerm@@V?$allocator@PAVFuzzyTerm@@@std@@@std@@IAEXI@Z$2 DD 040H
	DD	00H
	DD	00H
	DD	FLAT:__catch$?_Reallocate@?$vector@PAVFuzzyTerm@@V?$allocator@PAVFuzzyTerm@@@std@@@std@@IAEXI@Z$0
__unwindtable$?_Reallocate@?$vector@PAVFuzzyTerm@@V?$allocator@PAVFuzzyTerm@@@std@@@std@@IAEXI@Z DD 0ffffffffH
	DD	00H
	DD	0ffffffffH
	DD	00H
__tryblocktable$?_Reallocate@?$vector@PAVFuzzyTerm@@V?$allocator@PAVFuzzyTerm@@@std@@@std@@IAEXI@Z DD 00H
	DD	00H
	DD	01H
	DD	01H
	DD	FLAT:__catchsym$?_Reallocate@?$vector@PAVFuzzyTerm@@V?$allocator@PAVFuzzyTerm@@@std@@@std@@IAEXI@Z$2
__ehfuncinfo$?_Reallocate@?$vector@PAVFuzzyTerm@@V?$allocator@PAVFuzzyTerm@@@std@@@std@@IAEXI@Z DD 019930522H
	DD	02H
	DD	FLAT:__unwindtable$?_Reallocate@?$vector@PAVFuzzyTerm@@V?$allocator@PAVFuzzyTerm@@@std@@@std@@IAEXI@Z
	DD	01H
	DD	FLAT:__tryblocktable$?_Reallocate@?$vector@PAVFuzzyTerm@@V?$allocator@PAVFuzzyTerm@@@std@@@std@@IAEXI@Z
	DD	2 DUP(00H)
	DD	00H
	DD	01H
xdata$x	ENDS
;	COMDAT xdata$x
xdata$x	SEGMENT
__ehfuncinfo$?end@?$vector@PAVFuzzyTerm@@V?$allocator@PAVFuzzyTerm@@@std@@@std@@QBE?AV?$_Vector_const_iterator@V?$_Vector_val@U?$_Simple_types@PAVFuzzyTerm@@@std@@@std@@@2@XZ DD 019930522H
	DD	00H
	DD	00H
	DD	2 DUP(00H)
	DD	2 DUP(00H)
	DD	00H
	DD	05H
xdata$x	ENDS
;	COMDAT xdata$x
xdata$x	SEGMENT
__ehfuncinfo$?end@?$vector@PAVFuzzyTerm@@V?$allocator@PAVFuzzyTerm@@@std@@@std@@QAE?AV?$_Vector_iterator@V?$_Vector_val@U?$_Simple_types@PAVFuzzyTerm@@@std@@@std@@@2@XZ DD 019930522H
	DD	00H
	DD	00H
	DD	2 DUP(00H)
	DD	2 DUP(00H)
	DD	00H
	DD	05H
xdata$x	ENDS
;	COMDAT xdata$x
xdata$x	SEGMENT
__ehfuncinfo$?begin@?$vector@PAVFuzzyTerm@@V?$allocator@PAVFuzzyTerm@@@std@@@std@@QBE?AV?$_Vector_const_iterator@V?$_Vector_val@U?$_Simple_types@PAVFuzzyTerm@@@std@@@std@@@2@XZ DD 019930522H
	DD	00H
	DD	00H
	DD	2 DUP(00H)
	DD	2 DUP(00H)
	DD	00H
	DD	05H
xdata$x	ENDS
;	COMDAT xdata$x
xdata$x	SEGMENT
__ehfuncinfo$?begin@?$vector@PAVFuzzyTerm@@V?$allocator@PAVFuzzyTerm@@@std@@@std@@QAE?AV?$_Vector_iterator@V?$_Vector_val@U?$_Simple_types@PAVFuzzyTerm@@@std@@@std@@@2@XZ DD 019930522H
	DD	00H
	DD	00H
	DD	2 DUP(00H)
	DD	2 DUP(00H)
	DD	00H
	DD	05H
xdata$x	ENDS
;	COMDAT xdata$x
xdata$x	SEGMENT
__ehfuncinfo$??1?$vector@PAVFuzzyTerm@@V?$allocator@PAVFuzzyTerm@@@std@@@std@@QAE@XZ DD 019930522H
	DD	00H
	DD	00H
	DD	2 DUP(00H)
	DD	2 DUP(00H)
	DD	00H
	DD	05H
xdata$x	ENDS
;	COMDAT xdata$x
xdata$x	SEGMENT
__ehfuncinfo$??0?$vector@PAVFuzzyTerm@@V?$allocator@PAVFuzzyTerm@@@std@@@std@@QAE@XZ DD 019930522H
	DD	00H
	DD	00H
	DD	2 DUP(00H)
	DD	2 DUP(00H)
	DD	00H
	DD	05H
xdata$x	ENDS
;	COMDAT xdata$x
xdata$x	SEGMENT
__ehfuncinfo$??1?$_Vector_alloc@U?$_Vec_base_types@PAVFuzzyTerm@@V?$allocator@PAVFuzzyTerm@@@std@@@std@@@std@@QAE@XZ DD 019930522H
	DD	00H
	DD	00H
	DD	2 DUP(00H)
	DD	2 DUP(00H)
	DD	00H
	DD	05H
xdata$x	ENDS
;	COMDAT xdata$x
xdata$x	SEGMENT
__unwindtable$??0?$_Vector_alloc@U?$_Vec_base_types@PAVFuzzyTerm@@V?$allocator@PAVFuzzyTerm@@@std@@@std@@@std@@QAE@XZ DD 0ffffffffH
	DD	FLAT:__unwindfunclet$??0?$_Vector_alloc@U?$_Vec_base_types@PAVFuzzyTerm@@V?$allocator@PAVFuzzyTerm@@@std@@@std@@@std@@QAE@XZ$0
__ehfuncinfo$??0?$_Vector_alloc@U?$_Vec_base_types@PAVFuzzyTerm@@V?$allocator@PAVFuzzyTerm@@@std@@@std@@@std@@QAE@XZ DD 019930522H
	DD	01H
	DD	FLAT:__unwindtable$??0?$_Vector_alloc@U?$_Vec_base_types@PAVFuzzyTerm@@V?$allocator@PAVFuzzyTerm@@@std@@@std@@@std@@QAE@XZ
	DD	2 DUP(00H)
	DD	2 DUP(00H)
	DD	00H
	DD	01H
xdata$x	ENDS
;	COMDAT xdata$x
xdata$x	SEGMENT
__unwindtable$?_Adopt@_Iterator_base12@std@@QAEXPBU_Container_base12@2@@Z DD 0ffffffffH
	DD	FLAT:__unwindfunclet$?_Adopt@_Iterator_base12@std@@QAEXPBU_Container_base12@2@@Z$0
	DD	0ffffffffH
	DD	FLAT:__unwindfunclet$?_Adopt@_Iterator_base12@std@@QAEXPBU_Container_base12@2@@Z$1
__ehfuncinfo$?_Adopt@_Iterator_base12@std@@QAEXPBU_Container_base12@2@@Z DD 019930522H
	DD	02H
	DD	FLAT:__unwindtable$?_Adopt@_Iterator_base12@std@@QAEXPBU_Container_base12@2@@Z
	DD	2 DUP(00H)
	DD	2 DUP(00H)
	DD	00H
	DD	01H
xdata$x	ENDS
;	COMDAT xdata$x
xdata$x	SEGMENT
__ehfuncinfo$??1_Iterator_base12@std@@QAE@XZ DD 019930522H
	DD	00H
	DD	00H
	DD	2 DUP(00H)
	DD	2 DUP(00H)
	DD	00H
	DD	05H
xdata$x	ENDS
;	COMDAT xdata$x
xdata$x	SEGMENT
__unwindtable$??4_Iterator_base12@std@@QAEAAU01@ABU01@@Z DD 0ffffffffH
	DD	FLAT:__unwindfunclet$??4_Iterator_base12@std@@QAEAAU01@ABU01@@Z$0
__ehfuncinfo$??4_Iterator_base12@std@@QAEAAU01@ABU01@@Z DD 019930522H
	DD	01H
	DD	FLAT:__unwindtable$??4_Iterator_base12@std@@QAEAAU01@ABU01@@Z
	DD	2 DUP(00H)
	DD	2 DUP(00H)
	DD	00H
	DD	01H
xdata$x	ENDS
;	COMDAT xdata$x
xdata$x	SEGMENT
__ehfuncinfo$??1_Container_base12@std@@QAE@XZ DD 019930522H
	DD	00H
	DD	00H
	DD	2 DUP(00H)
	DD	2 DUP(00H)
	DD	00H
	DD	05H
xdata$x	ENDS
CRT$XCU	SEGMENT
?MaxDouble$initializer$@@3P6AXXZA DD FLAT:??__EMaxDouble@@YAXXZ ; MaxDouble$initializer$
CRT$XCU	ENDS
CRT$XCU	SEGMENT
?MinDouble$initializer$@@3P6AXXZA DD FLAT:??__EMinDouble@@YAXXZ ; MinDouble$initializer$
CRT$XCU	ENDS
CRT$XCU	SEGMENT
?MaxFloat$initializer$@@3P6AXXZA DD FLAT:??__EMaxFloat@@YAXXZ ; MaxFloat$initializer$
CRT$XCU	ENDS
CRT$XCU	SEGMENT
?MinFloat$initializer$@@3P6AXXZA DD FLAT:??__EMinFloat@@YAXXZ ; MinFloat$initializer$
CRT$XCU	ENDS
; Function compile flags: /Odtp /RTCsu
; File c:\program files (x86)\microsoft visual studio 14.0\vc\include\xutility
;	COMDAT ??$_Copy_memmove@PAPAVFuzzyTerm@@PAPAV1@@std@@YAPAPAVFuzzyTerm@@PAPAV1@00@Z
_TEXT	SEGMENT
__Count$ = -16						; size = 4
__Dest_ch$ = -12					; size = 4
__Last_ch$ = -8						; size = 4
__First_ch$ = -4					; size = 4
__First$ = 8						; size = 4
__Last$ = 12						; size = 4
__Dest$ = 16						; size = 4
??$_Copy_memmove@PAPAVFuzzyTerm@@PAPAV1@@std@@YAPAPAVFuzzyTerm@@PAPAV1@00@Z PROC ; std::_Copy_memmove<FuzzyTerm * *,FuzzyTerm * *>, COMDAT

; 2301 : 	{	// implement copy-like function as memmove

	push	ebp
	mov	ebp, esp
	sub	esp, 16					; 00000010H
	mov	eax, -858993460				; ccccccccH
	mov	DWORD PTR [ebp-16], eax
	mov	DWORD PTR [ebp-12], eax
	mov	DWORD PTR [ebp-8], eax
	mov	DWORD PTR [ebp-4], eax

; 2302 : 	const char * const _First_ch = reinterpret_cast<const char *>(_First);

	mov	eax, DWORD PTR __First$[ebp]
	mov	DWORD PTR __First_ch$[ebp], eax

; 2303 : 	const char * const _Last_ch = reinterpret_cast<const char *>(_Last);

	mov	ecx, DWORD PTR __Last$[ebp]
	mov	DWORD PTR __Last_ch$[ebp], ecx

; 2304 : 	char * const _Dest_ch = reinterpret_cast<char *>(_Dest);

	mov	edx, DWORD PTR __Dest$[ebp]
	mov	DWORD PTR __Dest_ch$[ebp], edx

; 2305 : 	const size_t _Count = _Last_ch - _First_ch;

	mov	eax, DWORD PTR __Last_ch$[ebp]
	sub	eax, DWORD PTR __First_ch$[ebp]
	mov	DWORD PTR __Count$[ebp], eax

; 2306 : 	_CSTD memmove(_Dest_ch, _First_ch, _Count);

	mov	ecx, DWORD PTR __Count$[ebp]
	push	ecx
	mov	edx, DWORD PTR __First_ch$[ebp]
	push	edx
	mov	eax, DWORD PTR __Dest_ch$[ebp]
	push	eax
	call	_memmove
	add	esp, 12					; 0000000cH

; 2307 : 	return (reinterpret_cast<_OutIt>(_Dest_ch + _Count));

	mov	eax, DWORD PTR __Dest_ch$[ebp]
	add	eax, DWORD PTR __Count$[ebp]

; 2308 : 	}

	add	esp, 16					; 00000010H
	cmp	ebp, esp
	call	__RTC_CheckEsp
	mov	esp, ebp
	pop	ebp
	ret	0
??$_Copy_memmove@PAPAVFuzzyTerm@@PAPAV1@@std@@YAPAPAVFuzzyTerm@@PAPAV1@00@Z ENDP ; std::_Copy_memmove<FuzzyTerm * *,FuzzyTerm * *>
_TEXT	ENDS
; Function compile flags: /Odtp /RTCsu
; File c:\program files (x86)\microsoft visual studio 14.0\vc\include\xmemory
;	COMDAT ??$_Uninitialized_move_al_unchecked1@PAVFuzzyTerm@@PAV1@V?$allocator@PAVFuzzyTerm@@@std@@@std@@YAPAPAVFuzzyTerm@@PAPAV1@00AAU?$_Wrap_alloc@V?$allocator@PAVFuzzyTerm@@@std@@@0@U_Really_trivial_ptr_iterator_tag@0@U?$integral_constant@_N$00@0@@Z
_TEXT	SEGMENT
__First$ = 8						; size = 4
__Last$ = 12						; size = 4
__Dest$ = 16						; size = 4
___formal$ = 20						; size = 4
___formal$ = 24						; size = 1
___formal$ = 28						; size = 1
??$_Uninitialized_move_al_unchecked1@PAVFuzzyTerm@@PAV1@V?$allocator@PAVFuzzyTerm@@@std@@@std@@YAPAPAVFuzzyTerm@@PAPAV1@00AAU?$_Wrap_alloc@V?$allocator@PAVFuzzyTerm@@@std@@@0@U_Really_trivial_ptr_iterator_tag@0@U?$integral_constant@_N$00@0@@Z PROC ; std::_Uninitialized_move_al_unchecked1<FuzzyTerm *,FuzzyTerm *,std::allocator<FuzzyTerm *> >, COMDAT

; 292  : 	{	// move [_First, _Last) to raw _Dest, using default _Alloc construct, memmove optimization

	push	ebp
	mov	ebp, esp

; 293  : 	return (_Copy_memmove(_First, _Last, _Dest));

	mov	eax, DWORD PTR __Dest$[ebp]
	push	eax
	mov	ecx, DWORD PTR __Last$[ebp]
	push	ecx
	mov	edx, DWORD PTR __First$[ebp]
	push	edx
	call	??$_Copy_memmove@PAPAVFuzzyTerm@@PAPAV1@@std@@YAPAPAVFuzzyTerm@@PAPAV1@00@Z ; std::_Copy_memmove<FuzzyTerm * *,FuzzyTerm * *>
	add	esp, 12					; 0000000cH

; 294  : 	}

	cmp	ebp, esp
	call	__RTC_CheckEsp
	pop	ebp
	ret	0
??$_Uninitialized_move_al_unchecked1@PAVFuzzyTerm@@PAV1@V?$allocator@PAVFuzzyTerm@@@std@@@std@@YAPAPAVFuzzyTerm@@PAPAV1@00AAU?$_Wrap_alloc@V?$allocator@PAVFuzzyTerm@@@std@@@0@U_Really_trivial_ptr_iterator_tag@0@U?$integral_constant@_N$00@0@@Z ENDP ; std::_Uninitialized_move_al_unchecked1<FuzzyTerm *,FuzzyTerm *,std::allocator<FuzzyTerm *> >
_TEXT	ENDS
; Function compile flags: /Odtp /RTCsu
; File c:\program files (x86)\microsoft visual studio 14.0\vc\include\xutility
;	COMDAT ??$_Ptr_move_cat@PAVFuzzyTerm@@PAV1@@std@@YA?AU_Really_trivial_ptr_iterator_tag@0@ABQAPAVFuzzyTerm@@0@Z
_TEXT	SEGMENT
___$ReturnUdt$ = 8					; size = 4
___formal$ = 12						; size = 4
___formal$ = 16						; size = 4
??$_Ptr_move_cat@PAVFuzzyTerm@@PAV1@@std@@YA?AU_Really_trivial_ptr_iterator_tag@0@ABQAPAVFuzzyTerm@@0@Z PROC ; std::_Ptr_move_cat<FuzzyTerm *,FuzzyTerm *>, COMDAT

; 809  : 	{	// return pointer move optimization category for pointers

	push	ebp
	mov	ebp, esp

; 810  : 	return {};

	mov	eax, DWORD PTR ___$ReturnUdt$[ebp]

; 811  : 	}

	pop	ebp
	ret	0
??$_Ptr_move_cat@PAVFuzzyTerm@@PAV1@@std@@YA?AU_Really_trivial_ptr_iterator_tag@0@ABQAPAVFuzzyTerm@@0@Z ENDP ; std::_Ptr_move_cat<FuzzyTerm *,FuzzyTerm *>
_TEXT	ENDS
; Function compile flags: /Odtp /RTCsu
; File c:\program files (x86)\microsoft visual studio 14.0\vc\include\xutility
;	COMDAT ??$_Rechecked@PAPAVFuzzyTerm@@PAPAV1@@std@@YAAAPAPAVFuzzyTerm@@AAPAPAV1@PAPAV1@@Z
_TEXT	SEGMENT
__Dest$ = 8						; size = 4
__Src$ = 12						; size = 4
??$_Rechecked@PAPAVFuzzyTerm@@PAPAV1@@std@@YAAAPAPAVFuzzyTerm@@AAPAPAV1@PAPAV1@@Z PROC ; std::_Rechecked<FuzzyTerm * *,FuzzyTerm * *>, COMDAT

; 457  : 	{	// reset checked from unchecked, generic

	push	ebp
	mov	ebp, esp

; 458  : 	_Dest = _Src;

	mov	eax, DWORD PTR __Dest$[ebp]
	mov	ecx, DWORD PTR __Src$[ebp]
	mov	DWORD PTR [eax], ecx

; 459  : 	return (_Dest);

	mov	eax, DWORD PTR __Dest$[ebp]

; 460  : 	}

	pop	ebp
	ret	0
??$_Rechecked@PAPAVFuzzyTerm@@PAPAV1@@std@@YAAAPAPAVFuzzyTerm@@AAPAPAV1@PAPAV1@@Z ENDP ; std::_Rechecked<FuzzyTerm * *,FuzzyTerm * *>
_TEXT	ENDS
; Function compile flags: /Odtp /RTCsu
; File c:\program files (x86)\microsoft visual studio 14.0\vc\include\xmemory
;	COMDAT ??$_Uninitialized_move_al_unchecked@PAPAVFuzzyTerm@@PAPAV1@V?$allocator@PAVFuzzyTerm@@@std@@@std@@YAPAPAVFuzzyTerm@@PAPAV1@00AAU?$_Wrap_alloc@V?$allocator@PAVFuzzyTerm@@@std@@@0@@Z
_TEXT	SEGMENT
$T1 = -2						; size = 1
$T2 = -1						; size = 1
__First$ = 8						; size = 4
__Last$ = 12						; size = 4
__Dest$ = 16						; size = 4
__Al$ = 20						; size = 4
??$_Uninitialized_move_al_unchecked@PAPAVFuzzyTerm@@PAPAV1@V?$allocator@PAVFuzzyTerm@@@std@@@std@@YAPAPAVFuzzyTerm@@PAPAV1@00AAU?$_Wrap_alloc@V?$allocator@PAVFuzzyTerm@@@std@@@0@@Z PROC ; std::_Uninitialized_move_al_unchecked<FuzzyTerm * *,FuzzyTerm * *,std::allocator<FuzzyTerm *> >, COMDAT

; 301  : 	{	// move [_First, _Last) to raw _Dest, using _Al, choose optimization

	push	ebp
	mov	ebp, esp
	push	ecx
	mov	DWORD PTR [ebp-4], -858993460		; ccccccccH

; 302  : 	typedef decltype(_STD move(*_First)) _Src_type; // TRANSITION MODULES VSO#222794
; 303  : 	return (_Uninitialized_move_al_unchecked1(_First, _Last, _Dest, _Al,

	movzx	eax, BYTE PTR $T2[ebp]
	push	eax
	lea	ecx, DWORD PTR __Dest$[ebp]
	push	ecx
	lea	edx, DWORD PTR __First$[ebp]
	push	edx
	lea	eax, DWORD PTR $T1[ebp]
	push	eax
	call	??$_Ptr_move_cat@PAVFuzzyTerm@@PAV1@@std@@YA?AU_Really_trivial_ptr_iterator_tag@0@ABQAPAVFuzzyTerm@@0@Z ; std::_Ptr_move_cat<FuzzyTerm *,FuzzyTerm *>
	add	esp, 12					; 0000000cH
	mov	cl, BYTE PTR [eax]
	movzx	edx, cl
	push	edx
	mov	eax, DWORD PTR __Al$[ebp]
	push	eax
	mov	ecx, DWORD PTR __Dest$[ebp]
	push	ecx
	mov	edx, DWORD PTR __Last$[ebp]
	push	edx
	mov	eax, DWORD PTR __First$[ebp]
	push	eax
	call	??$_Uninitialized_move_al_unchecked1@PAVFuzzyTerm@@PAV1@V?$allocator@PAVFuzzyTerm@@@std@@@std@@YAPAPAVFuzzyTerm@@PAPAV1@00AAU?$_Wrap_alloc@V?$allocator@PAVFuzzyTerm@@@std@@@0@U_Really_trivial_ptr_iterator_tag@0@U?$integral_constant@_N$00@0@@Z ; std::_Uninitialized_move_al_unchecked1<FuzzyTerm *,FuzzyTerm *,std::allocator<FuzzyTerm *> >
	add	esp, 24					; 00000018H

; 304  : 		_Ptr_move_cat(_First, _Dest),
; 305  : 		_Uses_default_construct_t<_Alloc, decltype(_Unfancy(_Dest)), _Src_type>()));
; 306  : 	}

	add	esp, 4
	cmp	ebp, esp
	call	__RTC_CheckEsp
	mov	esp, ebp
	pop	ebp
	ret	0
??$_Uninitialized_move_al_unchecked@PAPAVFuzzyTerm@@PAPAV1@V?$allocator@PAVFuzzyTerm@@@std@@@std@@YAPAPAVFuzzyTerm@@PAPAV1@00AAU?$_Wrap_alloc@V?$allocator@PAVFuzzyTerm@@@std@@@0@@Z ENDP ; std::_Uninitialized_move_al_unchecked<FuzzyTerm * *,FuzzyTerm * *,std::allocator<FuzzyTerm *> >
_TEXT	ENDS
; Function compile flags: /Odtp /RTCsu
; File c:\program files (x86)\microsoft visual studio 14.0\vc\include\xutility
;	COMDAT ??$_Unchecked@PAPAVFuzzyTerm@@@std@@YAPAPAVFuzzyTerm@@PAPAV1@@Z
_TEXT	SEGMENT
__Src$ = 8						; size = 4
??$_Unchecked@PAPAVFuzzyTerm@@@std@@YAPAPAVFuzzyTerm@@PAPAV1@@Z PROC ; std::_Unchecked<FuzzyTerm * *>, COMDAT

; 427  : 	{	// construct unchecked from checked, generic

	push	ebp
	mov	ebp, esp

; 428  : 	return (_Src);

	mov	eax, DWORD PTR __Src$[ebp]

; 429  : 	}

	pop	ebp
	ret	0
??$_Unchecked@PAPAVFuzzyTerm@@@std@@YAPAPAVFuzzyTerm@@PAPAV1@@Z ENDP ; std::_Unchecked<FuzzyTerm * *>
_TEXT	ENDS
; Function compile flags: /Odtp /RTCsu
; File c:\program files (x86)\microsoft visual studio 14.0\vc\include\xmemory0
;	COMDAT ??$construct@U_Container_proxy@std@@U12@@?$allocator@U_Container_proxy@std@@@std@@QAEXPAU_Container_proxy@1@$$QAU21@@Z
_TEXT	SEGMENT
tv74 = -12						; size = 4
$T1 = -8						; size = 4
_this$ = -4						; size = 4
__Ptr$ = 8						; size = 4
_<_Args_0>$ = 12					; size = 4
??$construct@U_Container_proxy@std@@U12@@?$allocator@U_Container_proxy@std@@@std@@QAEXPAU_Container_proxy@1@$$QAU21@@Z PROC ; std::allocator<std::_Container_proxy>::construct<std::_Container_proxy,std::_Container_proxy>, COMDAT
; _this$ = ecx

; 736  : 		{	// construct _Objty(_Types...) at _Ptr

	push	ebp
	mov	ebp, esp
	sub	esp, 12					; 0000000cH
	mov	DWORD PTR [ebp-12], -858993460		; ccccccccH
	mov	DWORD PTR [ebp-8], -858993460		; ccccccccH
	mov	DWORD PTR [ebp-4], -858993460		; ccccccccH
	mov	DWORD PTR _this$[ebp], ecx

; 737  : 		::new ((void *)_Ptr) _Objty(_STD forward<_Types>(_Args)...);

	mov	eax, DWORD PTR __Ptr$[ebp]
	push	eax
	push	8
	call	??2@YAPAXIPAX@Z				; operator new
	add	esp, 8
	mov	DWORD PTR $T1[ebp], eax
	cmp	DWORD PTR $T1[ebp], 0
	je	SHORT $LN3@construct
	mov	ecx, DWORD PTR _<_Args_0>$[ebp]
	push	ecx
	call	??$forward@U_Container_proxy@std@@@std@@YA$$QAU_Container_proxy@0@AAU10@@Z ; std::forward<std::_Container_proxy>
	add	esp, 4
	mov	edx, DWORD PTR [eax]
	mov	eax, DWORD PTR [eax+4]
	mov	ecx, DWORD PTR $T1[ebp]
	mov	DWORD PTR [ecx], edx
	mov	DWORD PTR [ecx+4], eax
	mov	edx, DWORD PTR $T1[ebp]
	mov	DWORD PTR tv74[ebp], edx
	jmp	SHORT $LN1@construct
$LN3@construct:
	mov	DWORD PTR tv74[ebp], 0
$LN1@construct:

; 738  : 		}

	add	esp, 12					; 0000000cH
	cmp	ebp, esp
	call	__RTC_CheckEsp
	mov	esp, ebp
	pop	ebp
	ret	8
??$construct@U_Container_proxy@std@@U12@@?$allocator@U_Container_proxy@std@@@std@@QAEXPAU_Container_proxy@1@$$QAU21@@Z ENDP ; std::allocator<std::_Container_proxy>::construct<std::_Container_proxy,std::_Container_proxy>
_TEXT	ENDS
; Function compile flags: /Odtp /RTCsu
; File c:\program files (x86)\microsoft visual studio 14.0\vc\include\xmemory0
;	COMDAT ??$destroy@U_Container_proxy@std@@@?$allocator@U_Container_proxy@std@@@std@@QAEXPAU_Container_proxy@1@@Z
_TEXT	SEGMENT
_this$ = -4						; size = 4
__Ptr$ = 8						; size = 4
??$destroy@U_Container_proxy@std@@@?$allocator@U_Container_proxy@std@@@std@@QAEXPAU_Container_proxy@1@@Z PROC ; std::allocator<std::_Container_proxy>::destroy<std::_Container_proxy>, COMDAT
; _this$ = ecx

; 743  : 		{	// destroy object at _Ptr

	push	ebp
	mov	ebp, esp
	push	ecx
	mov	DWORD PTR [ebp-4], -858993460		; ccccccccH
	mov	DWORD PTR _this$[ebp], ecx

; 744  : 		_Ptr->~_Uty();
; 745  : 		}

	mov	esp, ebp
	pop	ebp
	ret	4
??$destroy@U_Container_proxy@std@@@?$allocator@U_Container_proxy@std@@@std@@QAEXPAU_Container_proxy@1@@Z ENDP ; std::allocator<std::_Container_proxy>::destroy<std::_Container_proxy>
_TEXT	ENDS
; Function compile flags: /Odtp /RTCsu
; File c:\program files (x86)\microsoft visual studio 14.0\vc\include\xmemory0
;	COMDAT ??$construct@PAVFuzzyTerm@@PAV1@@?$allocator@PAVFuzzyTerm@@@std@@QAEXPAPAVFuzzyTerm@@$$QAPAV2@@Z
_TEXT	SEGMENT
tv73 = -12						; size = 4
$T1 = -8						; size = 4
_this$ = -4						; size = 4
__Ptr$ = 8						; size = 4
_<_Args_0>$ = 12					; size = 4
??$construct@PAVFuzzyTerm@@PAV1@@?$allocator@PAVFuzzyTerm@@@std@@QAEXPAPAVFuzzyTerm@@$$QAPAV2@@Z PROC ; std::allocator<FuzzyTerm *>::construct<FuzzyTerm *,FuzzyTerm *>, COMDAT
; _this$ = ecx

; 736  : 		{	// construct _Objty(_Types...) at _Ptr

	push	ebp
	mov	ebp, esp
	sub	esp, 12					; 0000000cH
	mov	DWORD PTR [ebp-12], -858993460		; ccccccccH
	mov	DWORD PTR [ebp-8], -858993460		; ccccccccH
	mov	DWORD PTR [ebp-4], -858993460		; ccccccccH
	mov	DWORD PTR _this$[ebp], ecx

; 737  : 		::new ((void *)_Ptr) _Objty(_STD forward<_Types>(_Args)...);

	mov	eax, DWORD PTR __Ptr$[ebp]
	push	eax
	push	4
	call	??2@YAPAXIPAX@Z				; operator new
	add	esp, 8
	mov	DWORD PTR $T1[ebp], eax
	cmp	DWORD PTR $T1[ebp], 0
	je	SHORT $LN3@construct
	mov	ecx, DWORD PTR _<_Args_0>$[ebp]
	push	ecx
	call	??$forward@PAVFuzzyTerm@@@std@@YA$$QAPAVFuzzyTerm@@AAPAV1@@Z ; std::forward<FuzzyTerm *>
	add	esp, 4
	mov	edx, DWORD PTR $T1[ebp]
	mov	eax, DWORD PTR [eax]
	mov	DWORD PTR [edx], eax
	mov	ecx, DWORD PTR $T1[ebp]
	mov	DWORD PTR tv73[ebp], ecx
	jmp	SHORT $LN1@construct
$LN3@construct:
	mov	DWORD PTR tv73[ebp], 0
$LN1@construct:

; 738  : 		}

	add	esp, 12					; 0000000cH
	cmp	ebp, esp
	call	__RTC_CheckEsp
	mov	esp, ebp
	pop	ebp
	ret	8
??$construct@PAVFuzzyTerm@@PAV1@@?$allocator@PAVFuzzyTerm@@@std@@QAEXPAPAVFuzzyTerm@@$$QAPAV2@@Z ENDP ; std::allocator<FuzzyTerm *>::construct<FuzzyTerm *,FuzzyTerm *>
_TEXT	ENDS
; Function compile flags: /Odtp /RTCsu
; File c:\program files (x86)\microsoft visual studio 14.0\vc\include\xmemory0
;	COMDAT ??$_Destroy_range1@V?$allocator@PAVFuzzyTerm@@@std@@PAPAVFuzzyTerm@@@std@@YAXPAPAVFuzzyTerm@@0AAU?$_Wrap_alloc@V?$allocator@PAVFuzzyTerm@@@std@@@0@U?$integral_constant@_N$00@0@@Z
_TEXT	SEGMENT
___formal$ = 8						; size = 4
___formal$ = 12						; size = 4
___formal$ = 16						; size = 4
___formal$ = 20						; size = 1
??$_Destroy_range1@V?$allocator@PAVFuzzyTerm@@@std@@PAPAVFuzzyTerm@@@std@@YAXPAPAVFuzzyTerm@@0AAU?$_Wrap_alloc@V?$allocator@PAVFuzzyTerm@@@std@@@0@U?$integral_constant@_N$00@0@@Z PROC ; std::_Destroy_range1<std::allocator<FuzzyTerm *>,FuzzyTerm * *>, COMDAT

; 1107 : 	{	// destroy [_First, _Last), trivially destructible and default destroy

	push	ebp
	mov	ebp, esp

; 1108 : 		// nothing to do
; 1109 : 	}

	pop	ebp
	ret	0
??$_Destroy_range1@V?$allocator@PAVFuzzyTerm@@@std@@PAPAVFuzzyTerm@@@std@@YAXPAPAVFuzzyTerm@@0AAU?$_Wrap_alloc@V?$allocator@PAVFuzzyTerm@@@std@@@0@U?$integral_constant@_N$00@0@@Z ENDP ; std::_Destroy_range1<std::allocator<FuzzyTerm *>,FuzzyTerm * *>
_TEXT	ENDS
; Function compile flags: /Odtp /RTCsu
; File c:\program files (x86)\microsoft visual studio 14.0\vc\include\xmemory
;	COMDAT ??$_Uninitialized_move@PAPAVFuzzyTerm@@PAPAV1@V?$allocator@PAVFuzzyTerm@@@std@@@std@@YAPAPAVFuzzyTerm@@PAPAV1@00AAU?$_Wrap_alloc@V?$allocator@PAVFuzzyTerm@@@std@@@0@@Z
_TEXT	SEGMENT
__First$ = 8						; size = 4
__Last$ = 12						; size = 4
__Dest$ = 16						; size = 4
__Al$ = 20						; size = 4
??$_Uninitialized_move@PAPAVFuzzyTerm@@PAPAV1@V?$allocator@PAVFuzzyTerm@@@std@@@std@@YAPAPAVFuzzyTerm@@PAPAV1@00AAU?$_Wrap_alloc@V?$allocator@PAVFuzzyTerm@@@std@@@0@@Z PROC ; std::_Uninitialized_move<FuzzyTerm * *,FuzzyTerm * *,std::allocator<FuzzyTerm *> >, COMDAT

; 313  : 	{	// move [_First, _Last) to raw _Dest, using _Al

	push	ebp
	mov	ebp, esp

; 314  : 		// note: only called internally from elsewhere in the STL, debug checks
; 315  : 		// and deprecation warnings omitted
; 316  : 	return (_Rechecked(_Dest,

	mov	eax, DWORD PTR __Al$[ebp]
	push	eax
	mov	ecx, DWORD PTR __Dest$[ebp]
	push	ecx
	call	??$_Unchecked@PAPAVFuzzyTerm@@@std@@YAPAPAVFuzzyTerm@@PAPAV1@@Z ; std::_Unchecked<FuzzyTerm * *>
	add	esp, 4
	push	eax
	mov	edx, DWORD PTR __Last$[ebp]
	push	edx
	call	??$_Unchecked@PAPAVFuzzyTerm@@@std@@YAPAPAVFuzzyTerm@@PAPAV1@@Z ; std::_Unchecked<FuzzyTerm * *>
	add	esp, 4
	push	eax
	mov	eax, DWORD PTR __First$[ebp]
	push	eax
	call	??$_Unchecked@PAPAVFuzzyTerm@@@std@@YAPAPAVFuzzyTerm@@PAPAV1@@Z ; std::_Unchecked<FuzzyTerm * *>
	add	esp, 4
	push	eax
	call	??$_Uninitialized_move_al_unchecked@PAPAVFuzzyTerm@@PAPAV1@V?$allocator@PAVFuzzyTerm@@@std@@@std@@YAPAPAVFuzzyTerm@@PAPAV1@00AAU?$_Wrap_alloc@V?$allocator@PAVFuzzyTerm@@@std@@@0@@Z ; std::_Uninitialized_move_al_unchecked<FuzzyTerm * *,FuzzyTerm * *,std::allocator<FuzzyTerm *> >
	add	esp, 16					; 00000010H
	push	eax
	lea	ecx, DWORD PTR __Dest$[ebp]
	push	ecx
	call	??$_Rechecked@PAPAVFuzzyTerm@@PAPAV1@@std@@YAAAPAPAVFuzzyTerm@@AAPAPAV1@PAPAV1@@Z ; std::_Rechecked<FuzzyTerm * *,FuzzyTerm * *>
	add	esp, 8
	mov	eax, DWORD PTR [eax]

; 317  : 		_Uninitialized_move_al_unchecked(_Unchecked(_First), _Unchecked(_Last),
; 318  : 			_Unchecked(_Dest), _Al)));
; 319  : 	}

	cmp	ebp, esp
	call	__RTC_CheckEsp
	pop	ebp
	ret	0
??$_Uninitialized_move@PAPAVFuzzyTerm@@PAPAV1@V?$allocator@PAVFuzzyTerm@@@std@@@std@@YAPAPAVFuzzyTerm@@PAPAV1@00AAU?$_Wrap_alloc@V?$allocator@PAVFuzzyTerm@@@std@@@0@@Z ENDP ; std::_Uninitialized_move<FuzzyTerm * *,FuzzyTerm * *,std::allocator<FuzzyTerm *> >
_TEXT	ENDS
; Function compile flags: /Odtp /RTCsu
; File c:\program files (x86)\microsoft visual studio 14.0\vc\include\xmemory0
;	COMDAT ??$construct@U_Container_proxy@std@@U12@@?$allocator_traits@V?$allocator@U_Container_proxy@std@@@std@@@std@@SAXAAV?$allocator@U_Container_proxy@std@@@1@PAU_Container_proxy@1@$$QAU31@@Z
_TEXT	SEGMENT
__Al$ = 8						; size = 4
__Ptr$ = 12						; size = 4
_<_Args_0>$ = 16					; size = 4
??$construct@U_Container_proxy@std@@U12@@?$allocator_traits@V?$allocator@U_Container_proxy@std@@@std@@@std@@SAXAAV?$allocator@U_Container_proxy@std@@@1@PAU_Container_proxy@1@$$QAU31@@Z PROC ; std::allocator_traits<std::allocator<std::_Container_proxy> >::construct<std::_Container_proxy,std::_Container_proxy>, COMDAT

; 856  : 		{	// construct _Objty(_Types...) at _Ptr

	push	ebp
	mov	ebp, esp

; 857  : 		_Al.construct(_Ptr, _STD forward<_Types>(_Args)...);

	mov	eax, DWORD PTR _<_Args_0>$[ebp]
	push	eax
	call	??$forward@U_Container_proxy@std@@@std@@YA$$QAU_Container_proxy@0@AAU10@@Z ; std::forward<std::_Container_proxy>
	add	esp, 4
	push	eax
	mov	ecx, DWORD PTR __Ptr$[ebp]
	push	ecx
	mov	ecx, DWORD PTR __Al$[ebp]
	call	??$construct@U_Container_proxy@std@@U12@@?$allocator@U_Container_proxy@std@@@std@@QAEXPAU_Container_proxy@1@$$QAU21@@Z ; std::allocator<std::_Container_proxy>::construct<std::_Container_proxy,std::_Container_proxy>

; 858  : 		}

	cmp	ebp, esp
	call	__RTC_CheckEsp
	pop	ebp
	ret	0
??$construct@U_Container_proxy@std@@U12@@?$allocator_traits@V?$allocator@U_Container_proxy@std@@@std@@@std@@SAXAAV?$allocator@U_Container_proxy@std@@@1@PAU_Container_proxy@1@$$QAU31@@Z ENDP ; std::allocator_traits<std::allocator<std::_Container_proxy> >::construct<std::_Container_proxy,std::_Container_proxy>
_TEXT	ENDS
; Function compile flags: /Odtp /RTCsu
; File c:\program files (x86)\microsoft visual studio 14.0\vc\include\type_traits
;	COMDAT ??$forward@U_Container_proxy@std@@@std@@YA$$QAU_Container_proxy@0@AAU10@@Z
_TEXT	SEGMENT
__Arg$ = 8						; size = 4
??$forward@U_Container_proxy@std@@@std@@YA$$QAU_Container_proxy@0@AAU10@@Z PROC ; std::forward<std::_Container_proxy>, COMDAT

; 1275 : 	{	// forward an lvalue as either an lvalue or an rvalue

	push	ebp
	mov	ebp, esp

; 1276 : 	return (static_cast<_Ty&&>(_Arg));

	mov	eax, DWORD PTR __Arg$[ebp]

; 1277 : 	}

	pop	ebp
	ret	0
??$forward@U_Container_proxy@std@@@std@@YA$$QAU_Container_proxy@0@AAU10@@Z ENDP ; std::forward<std::_Container_proxy>
_TEXT	ENDS
; Function compile flags: /Odtp /RTCsu
; File c:\program files (x86)\microsoft visual studio 14.0\vc\include\xmemory0
;	COMDAT ??$destroy@U_Container_proxy@std@@@?$allocator_traits@V?$allocator@U_Container_proxy@std@@@std@@@std@@SAXAAV?$allocator@U_Container_proxy@std@@@1@PAU_Container_proxy@1@@Z
_TEXT	SEGMENT
__Al$ = 8						; size = 4
__Ptr$ = 12						; size = 4
??$destroy@U_Container_proxy@std@@@?$allocator_traits@V?$allocator@U_Container_proxy@std@@@std@@@std@@SAXAAV?$allocator@U_Container_proxy@std@@@1@PAU_Container_proxy@1@@Z PROC ; std::allocator_traits<std::allocator<std::_Container_proxy> >::destroy<std::_Container_proxy>, COMDAT

; 863  : 		{	// destroy object at _Ptr

	push	ebp
	mov	ebp, esp

; 864  : 		_Al.destroy(_Ptr);

	mov	eax, DWORD PTR __Ptr$[ebp]
	push	eax
	mov	ecx, DWORD PTR __Al$[ebp]
	call	??$destroy@U_Container_proxy@std@@@?$allocator@U_Container_proxy@std@@@std@@QAEXPAU_Container_proxy@1@@Z ; std::allocator<std::_Container_proxy>::destroy<std::_Container_proxy>

; 865  : 		}

	cmp	ebp, esp
	call	__RTC_CheckEsp
	pop	ebp
	ret	0
??$destroy@U_Container_proxy@std@@@?$allocator_traits@V?$allocator@U_Container_proxy@std@@@std@@@std@@SAXAAV?$allocator@U_Container_proxy@std@@@1@PAU_Container_proxy@1@@Z ENDP ; std::allocator_traits<std::allocator<std::_Container_proxy> >::destroy<std::_Container_proxy>
_TEXT	ENDS
; Function compile flags: /Odtp /RTCsu
; File c:\program files (x86)\microsoft visual studio 14.0\vc\include\xmemory0
;	COMDAT ??$?0PAVFuzzyTerm@@@?$allocator@U_Container_proxy@std@@@std@@QAE@ABV?$allocator@PAVFuzzyTerm@@@1@@Z
_TEXT	SEGMENT
_this$ = -4						; size = 4
___formal$ = 8						; size = 4
??$?0PAVFuzzyTerm@@@?$allocator@U_Container_proxy@std@@@std@@QAE@ABV?$allocator@PAVFuzzyTerm@@@1@@Z PROC ; std::allocator<std::_Container_proxy>::allocator<std::_Container_proxy><FuzzyTerm *>, COMDAT
; _this$ = ecx

; 709  : 		{	// construct from a related allocator (do nothing)

	push	ebp
	mov	ebp, esp
	push	ecx
	mov	DWORD PTR [ebp-4], -858993460		; ccccccccH
	mov	DWORD PTR _this$[ebp], ecx

; 710  : 		}

	mov	eax, DWORD PTR _this$[ebp]
	mov	esp, ebp
	pop	ebp
	ret	4
??$?0PAVFuzzyTerm@@@?$allocator@U_Container_proxy@std@@@std@@QAE@ABV?$allocator@PAVFuzzyTerm@@@1@@Z ENDP ; std::allocator<std::_Container_proxy>::allocator<std::_Container_proxy><FuzzyTerm *>
_TEXT	ENDS
; Function compile flags: /Odtp /RTCsu
; File c:\program files (x86)\microsoft visual studio 14.0\vc\include\type_traits
;	COMDAT ??$forward@AAU?$_Wrap_alloc@V?$allocator@PAVFuzzyTerm@@@std@@@std@@@std@@YAAAU?$_Wrap_alloc@V?$allocator@PAVFuzzyTerm@@@std@@@0@AAU10@@Z
_TEXT	SEGMENT
__Arg$ = 8						; size = 4
??$forward@AAU?$_Wrap_alloc@V?$allocator@PAVFuzzyTerm@@@std@@@std@@@std@@YAAAU?$_Wrap_alloc@V?$allocator@PAVFuzzyTerm@@@std@@@0@AAU10@@Z PROC ; std::forward<std::_Wrap_alloc<std::allocator<FuzzyTerm *> > &>, COMDAT

; 1275 : 	{	// forward an lvalue as either an lvalue or an rvalue

	push	ebp
	mov	ebp, esp

; 1276 : 	return (static_cast<_Ty&&>(_Arg));

	mov	eax, DWORD PTR __Arg$[ebp]

; 1277 : 	}

	pop	ebp
	ret	0
??$forward@AAU?$_Wrap_alloc@V?$allocator@PAVFuzzyTerm@@@std@@@std@@@std@@YAAAU?$_Wrap_alloc@V?$allocator@PAVFuzzyTerm@@@std@@@0@AAU10@@Z ENDP ; std::forward<std::_Wrap_alloc<std::allocator<FuzzyTerm *> > &>
_TEXT	ENDS
; Function compile flags: /Odtp /RTCsu
; File c:\program files (x86)\microsoft visual studio 14.0\vc\include\xmemory0
;	COMDAT ??$construct@PAVFuzzyTerm@@PAV1@@?$allocator_traits@V?$allocator@PAVFuzzyTerm@@@std@@@std@@SAXAAV?$allocator@PAVFuzzyTerm@@@1@PAPAVFuzzyTerm@@$$QAPAV3@@Z
_TEXT	SEGMENT
__Al$ = 8						; size = 4
__Ptr$ = 12						; size = 4
_<_Args_0>$ = 16					; size = 4
??$construct@PAVFuzzyTerm@@PAV1@@?$allocator_traits@V?$allocator@PAVFuzzyTerm@@@std@@@std@@SAXAAV?$allocator@PAVFuzzyTerm@@@1@PAPAVFuzzyTerm@@$$QAPAV3@@Z PROC ; std::allocator_traits<std::allocator<FuzzyTerm *> >::construct<FuzzyTerm *,FuzzyTerm *>, COMDAT

; 856  : 		{	// construct _Objty(_Types...) at _Ptr

	push	ebp
	mov	ebp, esp

; 857  : 		_Al.construct(_Ptr, _STD forward<_Types>(_Args)...);

	mov	eax, DWORD PTR _<_Args_0>$[ebp]
	push	eax
	call	??$forward@PAVFuzzyTerm@@@std@@YA$$QAPAVFuzzyTerm@@AAPAV1@@Z ; std::forward<FuzzyTerm *>
	add	esp, 4
	push	eax
	mov	ecx, DWORD PTR __Ptr$[ebp]
	push	ecx
	mov	ecx, DWORD PTR __Al$[ebp]
	call	??$construct@PAVFuzzyTerm@@PAV1@@?$allocator@PAVFuzzyTerm@@@std@@QAEXPAPAVFuzzyTerm@@$$QAPAV2@@Z ; std::allocator<FuzzyTerm *>::construct<FuzzyTerm *,FuzzyTerm *>

; 858  : 		}

	cmp	ebp, esp
	call	__RTC_CheckEsp
	pop	ebp
	ret	0
??$construct@PAVFuzzyTerm@@PAV1@@?$allocator_traits@V?$allocator@PAVFuzzyTerm@@@std@@@std@@SAXAAV?$allocator@PAVFuzzyTerm@@@1@PAPAVFuzzyTerm@@$$QAPAV3@@Z ENDP ; std::allocator_traits<std::allocator<FuzzyTerm *> >::construct<FuzzyTerm *,FuzzyTerm *>
_TEXT	ENDS
; Function compile flags: /Odtp /RTCsu
; File c:\program files (x86)\microsoft visual studio 14.0\vc\include\xstddef
;	COMDAT ??$addressof@U_Container_proxy@std@@@std@@YAPAU_Container_proxy@0@AAU10@@Z
_TEXT	SEGMENT
__Val$ = 8						; size = 4
??$addressof@U_Container_proxy@std@@@std@@YAPAU_Container_proxy@0@AAU10@@Z PROC ; std::addressof<std::_Container_proxy>, COMDAT

; 724  : 	{	// return address of _Val

	push	ebp
	mov	ebp, esp

; 725  : 	return (__builtin_addressof(_Val));

	mov	eax, DWORD PTR __Val$[ebp]

; 726  : 	}

	pop	ebp
	ret	0
??$addressof@U_Container_proxy@std@@@std@@YAPAU_Container_proxy@0@AAU10@@Z ENDP ; std::addressof<std::_Container_proxy>
_TEXT	ENDS
; Function compile flags: /Odtp /RTCsu
; File c:\program files (x86)\microsoft visual studio 14.0\vc\include\xmemory0
;	COMDAT ?pointer_to@?$pointer_traits@PAU_Container_proxy@std@@@std@@SAPAU_Container_proxy@2@AAU32@@Z
_TEXT	SEGMENT
__Val$ = 8						; size = 4
?pointer_to@?$pointer_traits@PAU_Container_proxy@std@@@std@@SAPAU_Container_proxy@2@AAU32@@Z PROC ; std::pointer_traits<std::_Container_proxy *>::pointer_to, COMDAT

; 279  : 		{	// convert raw reference to pointer

	push	ebp
	mov	ebp, esp

; 280  : 		return (_STD addressof(_Val));

	mov	eax, DWORD PTR __Val$[ebp]
	push	eax
	call	??$addressof@U_Container_proxy@std@@@std@@YAPAU_Container_proxy@0@AAU10@@Z ; std::addressof<std::_Container_proxy>
	add	esp, 4

; 281  : 		}

	cmp	ebp, esp
	call	__RTC_CheckEsp
	pop	ebp
	ret	0
?pointer_to@?$pointer_traits@PAU_Container_proxy@std@@@std@@SAPAU_Container_proxy@2@AAU32@@Z ENDP ; std::pointer_traits<std::_Container_proxy *>::pointer_to
_TEXT	ENDS
; Function compile flags: /Odtp /RTCsu
; File c:\program files (x86)\microsoft visual studio 14.0\vc\include\xmemory0
;	COMDAT ??$_Destroy_range@V?$allocator@PAVFuzzyTerm@@@std@@PAPAVFuzzyTerm@@@std@@YAXPAPAVFuzzyTerm@@0AAU?$_Wrap_alloc@V?$allocator@PAVFuzzyTerm@@@std@@@0@@Z
_TEXT	SEGMENT
$T1 = -1						; size = 1
__First$ = 8						; size = 4
__Last$ = 12						; size = 4
__Al$ = 16						; size = 4
??$_Destroy_range@V?$allocator@PAVFuzzyTerm@@@std@@PAPAVFuzzyTerm@@@std@@YAXPAPAVFuzzyTerm@@0AAU?$_Wrap_alloc@V?$allocator@PAVFuzzyTerm@@@std@@@0@@Z PROC ; std::_Destroy_range<std::allocator<FuzzyTerm *>,FuzzyTerm * *>, COMDAT

; 1114 : 	{	// destroy [_First, _Last), choose optimization

	push	ebp
	mov	ebp, esp
	push	ecx
	mov	DWORD PTR [ebp-4], -858993460		; ccccccccH

; 1115 : 		// note that this is an optimization for debug mode codegen;
; 1116 : 		// in release mode the BE removes all of this
; 1117 : 	typedef typename _Alloc::value_type _Val;
; 1118 : 	_Destroy_range1(_First, _Last, _Al, typename conjunction<

	movzx	eax, BYTE PTR $T1[ebp]
	push	eax
	mov	ecx, DWORD PTR __Al$[ebp]
	push	ecx
	mov	edx, DWORD PTR __Last$[ebp]
	push	edx
	mov	eax, DWORD PTR __First$[ebp]
	push	eax
	call	??$_Destroy_range1@V?$allocator@PAVFuzzyTerm@@@std@@PAPAVFuzzyTerm@@@std@@YAXPAPAVFuzzyTerm@@0AAU?$_Wrap_alloc@V?$allocator@PAVFuzzyTerm@@@std@@@0@U?$integral_constant@_N$00@0@@Z ; std::_Destroy_range1<std::allocator<FuzzyTerm *>,FuzzyTerm * *>
	add	esp, 16					; 00000010H

; 1119 : 		is_trivially_destructible<_Val>,
; 1120 : 		_Uses_default_destroy<_Alloc, _Val *>>::type());
; 1121 : 	}

	add	esp, 4
	cmp	ebp, esp
	call	__RTC_CheckEsp
	mov	esp, ebp
	pop	ebp
	ret	0
??$_Destroy_range@V?$allocator@PAVFuzzyTerm@@@std@@PAPAVFuzzyTerm@@@std@@YAXPAPAVFuzzyTerm@@0AAU?$_Wrap_alloc@V?$allocator@PAVFuzzyTerm@@@std@@@0@@Z ENDP ; std::_Destroy_range<std::allocator<FuzzyTerm *>,FuzzyTerm * *>
_TEXT	ENDS
; Function compile flags: /Odtp /RTCsu
; File c:\program files (x86)\microsoft visual studio 14.0\vc\include\vector
;	COMDAT ??$_Umove@PAPAVFuzzyTerm@@@?$vector@PAVFuzzyTerm@@V?$allocator@PAVFuzzyTerm@@@std@@@std@@IAEPAPAVFuzzyTerm@@PAPAV2@00@Z
_TEXT	SEGMENT
_this$ = -4						; size = 4
__First$ = 8						; size = 4
__Last$ = 12						; size = 4
__Ptr$ = 16						; size = 4
??$_Umove@PAPAVFuzzyTerm@@@?$vector@PAVFuzzyTerm@@V?$allocator@PAVFuzzyTerm@@@std@@@std@@IAEPAPAVFuzzyTerm@@PAPAV2@00@Z PROC ; std::vector<FuzzyTerm *,std::allocator<FuzzyTerm *> >::_Umove<FuzzyTerm * *>, COMDAT
; _this$ = ecx

; 1658 : 		{	// move initializing [_First, _Last), using allocator

	push	ebp
	mov	ebp, esp
	push	ecx
	mov	DWORD PTR [ebp-4], -858993460		; ccccccccH
	mov	DWORD PTR _this$[ebp], ecx

; 1659 : 		return (_Uninitialized_move(_First, _Last,

	mov	ecx, DWORD PTR _this$[ebp]
	call	?_Getal@?$_Vector_alloc@U?$_Vec_base_types@PAVFuzzyTerm@@V?$allocator@PAVFuzzyTerm@@@std@@@std@@@std@@QAEAAU?$_Wrap_alloc@V?$allocator@PAVFuzzyTerm@@@std@@@2@XZ ; std::_Vector_alloc<std::_Vec_base_types<FuzzyTerm *,std::allocator<FuzzyTerm *> > >::_Getal
	push	eax
	mov	eax, DWORD PTR __Ptr$[ebp]
	push	eax
	mov	ecx, DWORD PTR __Last$[ebp]
	push	ecx
	mov	edx, DWORD PTR __First$[ebp]
	push	edx
	call	??$_Uninitialized_move@PAPAVFuzzyTerm@@PAPAV1@V?$allocator@PAVFuzzyTerm@@@std@@@std@@YAPAPAVFuzzyTerm@@PAPAV1@00AAU?$_Wrap_alloc@V?$allocator@PAVFuzzyTerm@@@std@@@0@@Z ; std::_Uninitialized_move<FuzzyTerm * *,FuzzyTerm * *,std::allocator<FuzzyTerm *> >
	add	esp, 16					; 00000010H

; 1660 : 			_Ptr, this->_Getal()));
; 1661 : 		}

	add	esp, 4
	cmp	ebp, esp
	call	__RTC_CheckEsp
	mov	esp, ebp
	pop	ebp
	ret	12					; 0000000cH
??$_Umove@PAPAVFuzzyTerm@@@?$vector@PAVFuzzyTerm@@V?$allocator@PAVFuzzyTerm@@@std@@@std@@IAEPAPAVFuzzyTerm@@PAPAV2@00@Z ENDP ; std::vector<FuzzyTerm *,std::allocator<FuzzyTerm *> >::_Umove<FuzzyTerm * *>
_TEXT	ENDS
; Function compile flags: /Odtp /RTCsu
; File c:\program files (x86)\microsoft visual studio 14.0\vc\include\xmemory0
;	COMDAT ??$construct@U_Container_proxy@std@@U12@@?$_Wrap_alloc@V?$allocator@U_Container_proxy@std@@@std@@@std@@QAEXPAU_Container_proxy@1@$$QAU21@@Z
_TEXT	SEGMENT
_this$ = -4						; size = 4
__Ptr$ = 8						; size = 4
_<_Args_0>$ = 12					; size = 4
??$construct@U_Container_proxy@std@@U12@@?$_Wrap_alloc@V?$allocator@U_Container_proxy@std@@@std@@@std@@QAEXPAU_Container_proxy@1@$$QAU21@@Z PROC ; std::_Wrap_alloc<std::allocator<std::_Container_proxy> >::construct<std::_Container_proxy,std::_Container_proxy>, COMDAT
; _this$ = ecx

; 994  : 		{	// construct _Ty(_Types...) at _Ptr

	push	ebp
	mov	ebp, esp
	push	ecx
	mov	DWORD PTR [ebp-4], -858993460		; ccccccccH
	mov	DWORD PTR _this$[ebp], ecx

; 995  : 		_Mytraits::construct(*this, _Ptr,

	mov	eax, DWORD PTR _<_Args_0>$[ebp]
	push	eax
	call	??$forward@U_Container_proxy@std@@@std@@YA$$QAU_Container_proxy@0@AAU10@@Z ; std::forward<std::_Container_proxy>
	add	esp, 4
	push	eax
	mov	ecx, DWORD PTR __Ptr$[ebp]
	push	ecx
	mov	edx, DWORD PTR _this$[ebp]
	push	edx
	call	??$construct@U_Container_proxy@std@@U12@@?$allocator_traits@V?$allocator@U_Container_proxy@std@@@std@@@std@@SAXAAV?$allocator@U_Container_proxy@std@@@1@PAU_Container_proxy@1@$$QAU31@@Z ; std::allocator_traits<std::allocator<std::_Container_proxy> >::construct<std::_Container_proxy,std::_Container_proxy>
	add	esp, 12					; 0000000cH

; 996  : 			_STD forward<_Types>(_Args)...);
; 997  : 		}

	add	esp, 4
	cmp	ebp, esp
	call	__RTC_CheckEsp
	mov	esp, ebp
	pop	ebp
	ret	8
??$construct@U_Container_proxy@std@@U12@@?$_Wrap_alloc@V?$allocator@U_Container_proxy@std@@@std@@@std@@QAEXPAU_Container_proxy@1@$$QAU21@@Z ENDP ; std::_Wrap_alloc<std::allocator<std::_Container_proxy> >::construct<std::_Container_proxy,std::_Container_proxy>
_TEXT	ENDS
; Function compile flags: /Odtp /RTCsu
; File c:\program files (x86)\microsoft visual studio 14.0\vc\include\xstddef
;	COMDAT ??$_Unfancy@U_Container_proxy@std@@@std@@YAPAU_Container_proxy@0@PAU10@@Z
_TEXT	SEGMENT
__Ptr$ = 8						; size = 4
??$_Unfancy@U_Container_proxy@std@@@std@@YAPAU_Container_proxy@0@PAU10@@Z PROC ; std::_Unfancy<std::_Container_proxy>, COMDAT

; 739  : 	{	// do nothing for plain pointers

	push	ebp
	mov	ebp, esp

; 740  : 	return (_Ptr);

	mov	eax, DWORD PTR __Ptr$[ebp]

; 741  : 	}

	pop	ebp
	ret	0
??$_Unfancy@U_Container_proxy@std@@@std@@YAPAU_Container_proxy@0@PAU10@@Z ENDP ; std::_Unfancy<std::_Container_proxy>
_TEXT	ENDS
; Function compile flags: /Odtp /RTCsu
; File c:\program files (x86)\microsoft visual studio 14.0\vc\include\xmemory0
;	COMDAT ??$destroy@U_Container_proxy@std@@@?$_Wrap_alloc@V?$allocator@U_Container_proxy@std@@@std@@@std@@QAEXPAU_Container_proxy@1@@Z
_TEXT	SEGMENT
_this$ = -4						; size = 4
__Ptr$ = 8						; size = 4
??$destroy@U_Container_proxy@std@@@?$_Wrap_alloc@V?$allocator@U_Container_proxy@std@@@std@@@std@@QAEXPAU_Container_proxy@1@@Z PROC ; std::_Wrap_alloc<std::allocator<std::_Container_proxy> >::destroy<std::_Container_proxy>, COMDAT
; _this$ = ecx

; 1002 : 		{	// destroy object at _Ptr

	push	ebp
	mov	ebp, esp
	push	ecx
	mov	DWORD PTR [ebp-4], -858993460		; ccccccccH
	mov	DWORD PTR _this$[ebp], ecx

; 1003 : 		_Mytraits::destroy(*this, _Ptr);

	mov	eax, DWORD PTR __Ptr$[ebp]
	push	eax
	mov	ecx, DWORD PTR _this$[ebp]
	push	ecx
	call	??$destroy@U_Container_proxy@std@@@?$allocator_traits@V?$allocator@U_Container_proxy@std@@@std@@@std@@SAXAAV?$allocator@U_Container_proxy@std@@@1@PAU_Container_proxy@1@@Z ; std::allocator_traits<std::allocator<std::_Container_proxy> >::destroy<std::_Container_proxy>
	add	esp, 8

; 1004 : 		}

	add	esp, 4
	cmp	ebp, esp
	call	__RTC_CheckEsp
	mov	esp, ebp
	pop	ebp
	ret	4
??$destroy@U_Container_proxy@std@@@?$_Wrap_alloc@V?$allocator@U_Container_proxy@std@@@std@@@std@@QAEXPAU_Container_proxy@1@@Z ENDP ; std::_Wrap_alloc<std::allocator<std::_Container_proxy> >::destroy<std::_Container_proxy>
_TEXT	ENDS
; Function compile flags: /Odtp /RTCsu
; File c:\program files (x86)\microsoft visual studio 14.0\vc\include\xmemory0
;	COMDAT ??$?0AAU?$_Wrap_alloc@V?$allocator@PAVFuzzyTerm@@@std@@@std@@@?$_Wrap_alloc@V?$allocator@U_Container_proxy@std@@@std@@@std@@QAE@AAU?$_Wrap_alloc@V?$allocator@PAVFuzzyTerm@@@std@@@1@@Z
_TEXT	SEGMENT
_this$ = -4						; size = 4
__Right$ = 8						; size = 4
??$?0AAU?$_Wrap_alloc@V?$allocator@PAVFuzzyTerm@@@std@@@std@@@?$_Wrap_alloc@V?$allocator@U_Container_proxy@std@@@std@@@std@@QAE@AAU?$_Wrap_alloc@V?$allocator@PAVFuzzyTerm@@@std@@@1@@Z PROC ; std::_Wrap_alloc<std::allocator<std::_Container_proxy> >::_Wrap_alloc<std::allocator<std::_Container_proxy> ><std::_Wrap_alloc<std::allocator<FuzzyTerm *> > &>, COMDAT
; _this$ = ecx

; 952  : 		{	// construct from a related allocator

	push	ebp
	mov	ebp, esp
	push	ecx
	mov	DWORD PTR [ebp-4], -858993460		; ccccccccH
	mov	DWORD PTR _this$[ebp], ecx

; 951  : 		: _Mybase(_STD forward<_Other>(_Right))

	mov	eax, DWORD PTR __Right$[ebp]
	push	eax
	call	??$forward@AAU?$_Wrap_alloc@V?$allocator@PAVFuzzyTerm@@@std@@@std@@@std@@YAAAU?$_Wrap_alloc@V?$allocator@PAVFuzzyTerm@@@std@@@0@AAU10@@Z ; std::forward<std::_Wrap_alloc<std::allocator<FuzzyTerm *> > &>
	add	esp, 4
	push	eax
	mov	ecx, DWORD PTR _this$[ebp]
	call	??$?0PAVFuzzyTerm@@@?$allocator@U_Container_proxy@std@@@std@@QAE@ABV?$allocator@PAVFuzzyTerm@@@1@@Z ; std::allocator<std::_Container_proxy>::allocator<std::_Container_proxy><FuzzyTerm *>

; 953  : 		}

	mov	eax, DWORD PTR _this$[ebp]
	add	esp, 4
	cmp	ebp, esp
	call	__RTC_CheckEsp
	mov	esp, ebp
	pop	ebp
	ret	4
??$?0AAU?$_Wrap_alloc@V?$allocator@PAVFuzzyTerm@@@std@@@std@@@?$_Wrap_alloc@V?$allocator@U_Container_proxy@std@@@std@@@std@@QAE@AAU?$_Wrap_alloc@V?$allocator@PAVFuzzyTerm@@@std@@@1@@Z ENDP ; std::_Wrap_alloc<std::allocator<std::_Container_proxy> >::_Wrap_alloc<std::allocator<std::_Container_proxy> ><std::_Wrap_alloc<std::allocator<FuzzyTerm *> > &>
_TEXT	ENDS
; Function compile flags: /Odtp /RTCsu
; File c:\program files (x86)\microsoft visual studio 14.0\vc\include\xmemory0
;	COMDAT ?deallocate@?$_Wrap_alloc@V?$allocator@U_Container_proxy@std@@@std@@@std@@QAEXPAU_Container_proxy@2@I@Z
_TEXT	SEGMENT
_this$ = -4						; size = 4
__Ptr$ = 8						; size = 4
__Count$ = 12						; size = 4
?deallocate@?$_Wrap_alloc@V?$allocator@U_Container_proxy@std@@@std@@@std@@QAEXPAU_Container_proxy@2@I@Z PROC ; std::_Wrap_alloc<std::allocator<std::_Container_proxy> >::deallocate, COMDAT
; _this$ = ecx

; 986  : 		{	// deallocate object at _Ptr, ignore size

	push	ebp
	mov	ebp, esp
	push	ecx
	mov	DWORD PTR [ebp-4], -858993460		; ccccccccH
	mov	DWORD PTR _this$[ebp], ecx

; 987  : 		_Mybase::deallocate(_Ptr, _Count);

	mov	eax, DWORD PTR __Count$[ebp]
	push	eax
	mov	ecx, DWORD PTR __Ptr$[ebp]
	push	ecx
	mov	ecx, DWORD PTR _this$[ebp]
	call	?deallocate@?$allocator@U_Container_proxy@std@@@std@@QAEXPAU_Container_proxy@2@I@Z ; std::allocator<std::_Container_proxy>::deallocate

; 988  : 		}

	add	esp, 4
	cmp	ebp, esp
	call	__RTC_CheckEsp
	mov	esp, ebp
	pop	ebp
	ret	8
?deallocate@?$_Wrap_alloc@V?$allocator@U_Container_proxy@std@@@std@@@std@@QAEXPAU_Container_proxy@2@I@Z ENDP ; std::_Wrap_alloc<std::allocator<std::_Container_proxy> >::deallocate
_TEXT	ENDS
; Function compile flags: /Odtp /RTCsu
; File c:\program files (x86)\microsoft visual studio 14.0\vc\include\xmemory0
;	COMDAT ?allocate@?$_Wrap_alloc@V?$allocator@U_Container_proxy@std@@@std@@@std@@QAEPAU_Container_proxy@2@I@Z
_TEXT	SEGMENT
_this$ = -4						; size = 4
__Count$ = 8						; size = 4
?allocate@?$_Wrap_alloc@V?$allocator@U_Container_proxy@std@@@std@@@std@@QAEPAU_Container_proxy@2@I@Z PROC ; std::_Wrap_alloc<std::allocator<std::_Container_proxy> >::allocate, COMDAT
; _this$ = ecx

; 975  : 		{	// allocate array of _Count elements

	push	ebp
	mov	ebp, esp
	push	ecx
	mov	DWORD PTR [ebp-4], -858993460		; ccccccccH
	mov	DWORD PTR _this$[ebp], ecx

; 976  : 		return (_Mybase::allocate(_Count));

	mov	eax, DWORD PTR __Count$[ebp]
	push	eax
	mov	ecx, DWORD PTR _this$[ebp]
	call	?allocate@?$allocator@U_Container_proxy@std@@@std@@QAEPAU_Container_proxy@2@I@Z ; std::allocator<std::_Container_proxy>::allocate

; 977  : 		}

	add	esp, 4
	cmp	ebp, esp
	call	__RTC_CheckEsp
	mov	esp, ebp
	pop	ebp
	ret	4
?allocate@?$_Wrap_alloc@V?$allocator@U_Container_proxy@std@@@std@@@std@@QAEPAU_Container_proxy@2@I@Z ENDP ; std::_Wrap_alloc<std::allocator<std::_Container_proxy> >::allocate
_TEXT	ENDS
; Function compile flags: /Odtp /RTCsu
; File c:\program files (x86)\microsoft visual studio 14.0\vc\include\xmemory0
;	COMDAT ?address@?$_Wrap_alloc@V?$allocator@U_Container_proxy@std@@@std@@@std@@QBEPAU_Container_proxy@2@AAU32@@Z
_TEXT	SEGMENT
_this$ = -4						; size = 4
__Val$ = 8						; size = 4
?address@?$_Wrap_alloc@V?$allocator@U_Container_proxy@std@@@std@@@std@@QBEPAU_Container_proxy@2@AAU32@@Z PROC ; std::_Wrap_alloc<std::allocator<std::_Container_proxy> >::address, COMDAT
; _this$ = ecx

; 925  : 		{	// return address of mutable _Val

	push	ebp
	mov	ebp, esp
	push	ecx
	mov	DWORD PTR [ebp-4], -858993460		; ccccccccH
	mov	DWORD PTR _this$[ebp], ecx

; 926  : 		return (pointer_traits<pointer>::pointer_to(_Val));

	mov	eax, DWORD PTR __Val$[ebp]
	push	eax
	call	?pointer_to@?$pointer_traits@PAU_Container_proxy@std@@@std@@SAPAU_Container_proxy@2@AAU32@@Z ; std::pointer_traits<std::_Container_proxy *>::pointer_to
	add	esp, 4

; 927  : 		}

	add	esp, 4
	cmp	ebp, esp
	call	__RTC_CheckEsp
	mov	esp, ebp
	pop	ebp
	ret	4
?address@?$_Wrap_alloc@V?$allocator@U_Container_proxy@std@@@std@@@std@@QBEPAU_Container_proxy@2@AAU32@@Z ENDP ; std::_Wrap_alloc<std::allocator<std::_Container_proxy> >::address
_TEXT	ENDS
; Function compile flags: /Odtp /RTCsu
; File c:\program files (x86)\microsoft visual studio 14.0\vc\include\xmemory0
;	COMDAT ?allocate@?$allocator@U_Container_proxy@std@@@std@@QAEPAU_Container_proxy@2@I@Z
_TEXT	SEGMENT
_this$ = -4						; size = 4
__Count$ = 8						; size = 4
?allocate@?$allocator@U_Container_proxy@std@@@std@@QAEPAU_Container_proxy@2@I@Z PROC ; std::allocator<std::_Container_proxy>::allocate, COMDAT
; _this$ = ecx

; 724  : 		{	// allocate array of _Count elements

	push	ebp
	mov	ebp, esp
	push	ecx
	mov	DWORD PTR [ebp-4], -858993460		; ccccccccH
	mov	DWORD PTR _this$[ebp], ecx

; 725  : 		return (static_cast<pointer>(_Allocate(_Count, sizeof (_Ty))));

	push	1
	push	8
	mov	eax, DWORD PTR __Count$[ebp]
	push	eax
	call	?_Allocate@std@@YAPAXII_N@Z		; std::_Allocate
	add	esp, 12					; 0000000cH

; 726  : 		}

	add	esp, 4
	cmp	ebp, esp
	call	__RTC_CheckEsp
	mov	esp, ebp
	pop	ebp
	ret	4
?allocate@?$allocator@U_Container_proxy@std@@@std@@QAEPAU_Container_proxy@2@I@Z ENDP ; std::allocator<std::_Container_proxy>::allocate
_TEXT	ENDS
; Function compile flags: /Odtp /RTCsu
; File c:\program files (x86)\microsoft visual studio 14.0\vc\include\xmemory0
;	COMDAT ?deallocate@?$allocator@U_Container_proxy@std@@@std@@QAEXPAU_Container_proxy@2@I@Z
_TEXT	SEGMENT
_this$ = -4						; size = 4
__Ptr$ = 8						; size = 4
__Count$ = 12						; size = 4
?deallocate@?$allocator@U_Container_proxy@std@@@std@@QAEXPAU_Container_proxy@2@I@Z PROC ; std::allocator<std::_Container_proxy>::deallocate, COMDAT
; _this$ = ecx

; 719  : 		{	// deallocate object at _Ptr

	push	ebp
	mov	ebp, esp
	push	ecx
	mov	DWORD PTR [ebp-4], -858993460		; ccccccccH
	mov	DWORD PTR _this$[ebp], ecx

; 720  : 		_Deallocate(_Ptr, _Count, sizeof (_Ty));

	push	8
	mov	eax, DWORD PTR __Count$[ebp]
	push	eax
	mov	ecx, DWORD PTR __Ptr$[ebp]
	push	ecx
	call	?_Deallocate@std@@YAXPAXII@Z		; std::_Deallocate
	add	esp, 12					; 0000000cH

; 721  : 		}

	add	esp, 4
	cmp	ebp, esp
	call	__RTC_CheckEsp
	mov	esp, ebp
	pop	ebp
	ret	8
?deallocate@?$allocator@U_Container_proxy@std@@@std@@QAEXPAU_Container_proxy@2@I@Z ENDP ; std::allocator<std::_Container_proxy>::deallocate
_TEXT	ENDS
; Function compile flags: /Odtp /RTCsu
; File c:\program files (x86)\microsoft visual studio 14.0\vc\include\xutility
;	COMDAT ??$?0$$V@?$_Compressed_pair@U?$_Wrap_alloc@V?$allocator@PAVFuzzyTerm@@@std@@@std@@V?$_Vector_val@U?$_Simple_types@PAVFuzzyTerm@@@std@@@2@$00@std@@QAE@U_Zero_then_variadic_args_t@1@@Z
_TEXT	SEGMENT
_this$ = -4						; size = 4
___formal$ = 8						; size = 1
??$?0$$V@?$_Compressed_pair@U?$_Wrap_alloc@V?$allocator@PAVFuzzyTerm@@@std@@@std@@V?$_Vector_val@U?$_Simple_types@PAVFuzzyTerm@@@std@@@2@$00@std@@QAE@U_Zero_then_variadic_args_t@1@@Z PROC ; std::_Compressed_pair<std::_Wrap_alloc<std::allocator<FuzzyTerm *> >,std::_Vector_val<std::_Simple_types<FuzzyTerm *> >,1>::_Compressed_pair<std::_Wrap_alloc<std::allocator<FuzzyTerm *> >,std::_Vector_val<std::_Simple_types<FuzzyTerm *> >,1><>, COMDAT
; _this$ = ecx

; 280  : 		{	// construct from forwarded values

	push	ebp
	mov	ebp, esp
	push	ecx
	mov	DWORD PTR [ebp-4], -858993460		; ccccccccH
	mov	DWORD PTR _this$[ebp], ecx

; 279  : 		: _Ty1(), _Myval2(_STD forward<_Other2>(_Val2)...)

	mov	ecx, DWORD PTR _this$[ebp]
	call	??0?$_Wrap_alloc@V?$allocator@PAVFuzzyTerm@@@std@@@std@@QAE@XZ ; std::_Wrap_alloc<std::allocator<FuzzyTerm *> >::_Wrap_alloc<std::allocator<FuzzyTerm *> >
	mov	ecx, DWORD PTR _this$[ebp]
	call	??0?$_Vector_val@U?$_Simple_types@PAVFuzzyTerm@@@std@@@std@@QAE@XZ ; std::_Vector_val<std::_Simple_types<FuzzyTerm *> >::_Vector_val<std::_Simple_types<FuzzyTerm *> >

; 281  : 		}

	mov	eax, DWORD PTR _this$[ebp]
	add	esp, 4
	cmp	ebp, esp
	call	__RTC_CheckEsp
	mov	esp, ebp
	pop	ebp
	ret	4
??$?0$$V@?$_Compressed_pair@U?$_Wrap_alloc@V?$allocator@PAVFuzzyTerm@@@std@@@std@@V?$_Vector_val@U?$_Simple_types@PAVFuzzyTerm@@@std@@@2@$00@std@@QAE@U_Zero_then_variadic_args_t@1@@Z ENDP ; std::_Compressed_pair<std::_Wrap_alloc<std::allocator<FuzzyTerm *> >,std::_Vector_val<std::_Simple_types<FuzzyTerm *> >,1>::_Compressed_pair<std::_Wrap_alloc<std::allocator<FuzzyTerm *> >,std::_Vector_val<std::_Simple_types<FuzzyTerm *> >,1><>
_TEXT	ENDS
; Function compile flags: /Odtp /RTCsu
; File c:\program files (x86)\microsoft visual studio 14.0\vc\include\xmemory0
;	COMDAT ??$construct@PAVFuzzyTerm@@PAV1@@?$_Wrap_alloc@V?$allocator@PAVFuzzyTerm@@@std@@@std@@QAEXPAPAVFuzzyTerm@@$$QAPAV2@@Z
_TEXT	SEGMENT
_this$ = -4						; size = 4
__Ptr$ = 8						; size = 4
_<_Args_0>$ = 12					; size = 4
??$construct@PAVFuzzyTerm@@PAV1@@?$_Wrap_alloc@V?$allocator@PAVFuzzyTerm@@@std@@@std@@QAEXPAPAVFuzzyTerm@@$$QAPAV2@@Z PROC ; std::_Wrap_alloc<std::allocator<FuzzyTerm *> >::construct<FuzzyTerm *,FuzzyTerm *>, COMDAT
; _this$ = ecx

; 994  : 		{	// construct _Ty(_Types...) at _Ptr

	push	ebp
	mov	ebp, esp
	push	ecx
	mov	DWORD PTR [ebp-4], -858993460		; ccccccccH
	mov	DWORD PTR _this$[ebp], ecx

; 995  : 		_Mytraits::construct(*this, _Ptr,

	mov	eax, DWORD PTR _<_Args_0>$[ebp]
	push	eax
	call	??$forward@PAVFuzzyTerm@@@std@@YA$$QAPAVFuzzyTerm@@AAPAV1@@Z ; std::forward<FuzzyTerm *>
	add	esp, 4
	push	eax
	mov	ecx, DWORD PTR __Ptr$[ebp]
	push	ecx
	mov	edx, DWORD PTR _this$[ebp]
	push	edx
	call	??$construct@PAVFuzzyTerm@@PAV1@@?$allocator_traits@V?$allocator@PAVFuzzyTerm@@@std@@@std@@SAXAAV?$allocator@PAVFuzzyTerm@@@1@PAPAVFuzzyTerm@@$$QAPAV3@@Z ; std::allocator_traits<std::allocator<FuzzyTerm *> >::construct<FuzzyTerm *,FuzzyTerm *>
	add	esp, 12					; 0000000cH

; 996  : 			_STD forward<_Types>(_Args)...);
; 997  : 		}

	add	esp, 4
	cmp	ebp, esp
	call	__RTC_CheckEsp
	mov	esp, ebp
	pop	ebp
	ret	8
??$construct@PAVFuzzyTerm@@PAV1@@?$_Wrap_alloc@V?$allocator@PAVFuzzyTerm@@@std@@@std@@QAEXPAPAVFuzzyTerm@@$$QAPAV2@@Z ENDP ; std::_Wrap_alloc<std::allocator<FuzzyTerm *> >::construct<FuzzyTerm *,FuzzyTerm *>
_TEXT	ENDS
; Function compile flags: /Odtp /RTCsu
; File c:\program files (x86)\microsoft visual studio 14.0\vc\include\type_traits
;	COMDAT ??$forward@PAVFuzzyTerm@@@std@@YA$$QAPAVFuzzyTerm@@AAPAV1@@Z
_TEXT	SEGMENT
__Arg$ = 8						; size = 4
??$forward@PAVFuzzyTerm@@@std@@YA$$QAPAVFuzzyTerm@@AAPAV1@@Z PROC ; std::forward<FuzzyTerm *>, COMDAT

; 1275 : 	{	// forward an lvalue as either an lvalue or an rvalue

	push	ebp
	mov	ebp, esp

; 1276 : 	return (static_cast<_Ty&&>(_Arg));

	mov	eax, DWORD PTR __Arg$[ebp]

; 1277 : 	}

	pop	ebp
	ret	0
??$forward@PAVFuzzyTerm@@@std@@YA$$QAPAVFuzzyTerm@@AAPAV1@@Z ENDP ; std::forward<FuzzyTerm *>
_TEXT	ENDS
; Function compile flags: /Odtp /RTCsu
; File c:\program files (x86)\microsoft visual studio 14.0\vc\include\xstddef
;	COMDAT ??$_Unfancy@PAVFuzzyTerm@@@std@@YAPAPAVFuzzyTerm@@PAPAV1@@Z
_TEXT	SEGMENT
__Ptr$ = 8						; size = 4
??$_Unfancy@PAVFuzzyTerm@@@std@@YAPAPAVFuzzyTerm@@PAPAV1@@Z PROC ; std::_Unfancy<FuzzyTerm *>, COMDAT

; 739  : 	{	// do nothing for plain pointers

	push	ebp
	mov	ebp, esp

; 740  : 	return (_Ptr);

	mov	eax, DWORD PTR __Ptr$[ebp]

; 741  : 	}

	pop	ebp
	ret	0
??$_Unfancy@PAVFuzzyTerm@@@std@@YAPAPAVFuzzyTerm@@PAPAV1@@Z ENDP ; std::_Unfancy<FuzzyTerm *>
_TEXT	ENDS
; Function compile flags: /Odtp /RTCsu
; File c:\program files (x86)\microsoft visual studio 14.0\vc\include\xstddef
;	COMDAT ??$addressof@PAVFuzzyTerm@@@std@@YAPAPAVFuzzyTerm@@AAPAV1@@Z
_TEXT	SEGMENT
__Val$ = 8						; size = 4
??$addressof@PAVFuzzyTerm@@@std@@YAPAPAVFuzzyTerm@@AAPAV1@@Z PROC ; std::addressof<FuzzyTerm *>, COMDAT

; 724  : 	{	// return address of _Val

	push	ebp
	mov	ebp, esp

; 725  : 	return (__builtin_addressof(_Val));

	mov	eax, DWORD PTR __Val$[ebp]

; 726  : 	}

	pop	ebp
	ret	0
??$addressof@PAVFuzzyTerm@@@std@@YAPAPAVFuzzyTerm@@AAPAV1@@Z ENDP ; std::addressof<FuzzyTerm *>
_TEXT	ENDS
; Function compile flags: /Odtp /RTCsu
;	COMDAT ??4?$_Vector_iterator@V?$_Vector_val@U?$_Simple_types@PAVFuzzyTerm@@@std@@@std@@@std@@QAEAAV01@$$QAV01@@Z
_TEXT	SEGMENT
_this$ = -4						; size = 4
___that$ = 8						; size = 4
??4?$_Vector_iterator@V?$_Vector_val@U?$_Simple_types@PAVFuzzyTerm@@@std@@@std@@@std@@QAEAAV01@$$QAV01@@Z PROC ; std::_Vector_iterator<std::_Vector_val<std::_Simple_types<FuzzyTerm *> > >::operator=, COMDAT
; _this$ = ecx
	push	ebp
	mov	ebp, esp
	push	ecx
	mov	DWORD PTR [ebp-4], -858993460		; ccccccccH
	mov	DWORD PTR _this$[ebp], ecx
	mov	eax, DWORD PTR ___that$[ebp]
	push	eax
	mov	ecx, DWORD PTR _this$[ebp]
	call	??4?$_Vector_const_iterator@V?$_Vector_val@U?$_Simple_types@PAVFuzzyTerm@@@std@@@std@@@std@@QAEAAV01@$$QAV01@@Z
	mov	eax, DWORD PTR _this$[ebp]
	add	esp, 4
	cmp	ebp, esp
	call	__RTC_CheckEsp
	mov	esp, ebp
	pop	ebp
	ret	4
??4?$_Vector_iterator@V?$_Vector_val@U?$_Simple_types@PAVFuzzyTerm@@@std@@@std@@@std@@QAEAAV01@$$QAV01@@Z ENDP ; std::_Vector_iterator<std::_Vector_val<std::_Simple_types<FuzzyTerm *> > >::operator=
_TEXT	ENDS
; Function compile flags: /Odtp /RTCsu
;	COMDAT ??1?$_Vector_iterator@V?$_Vector_val@U?$_Simple_types@PAVFuzzyTerm@@@std@@@std@@@std@@QAE@XZ
_TEXT	SEGMENT
_this$ = -4						; size = 4
??1?$_Vector_iterator@V?$_Vector_val@U?$_Simple_types@PAVFuzzyTerm@@@std@@@std@@@std@@QAE@XZ PROC ; std::_Vector_iterator<std::_Vector_val<std::_Simple_types<FuzzyTerm *> > >::~_Vector_iterator<std::_Vector_val<std::_Simple_types<FuzzyTerm *> > >, COMDAT
; _this$ = ecx
	push	ebp
	mov	ebp, esp
	push	ecx
	mov	DWORD PTR [ebp-4], -858993460		; ccccccccH
	mov	DWORD PTR _this$[ebp], ecx
	mov	ecx, DWORD PTR _this$[ebp]
	call	??1?$_Vector_const_iterator@V?$_Vector_val@U?$_Simple_types@PAVFuzzyTerm@@@std@@@std@@@std@@QAE@XZ
	add	esp, 4
	cmp	ebp, esp
	call	__RTC_CheckEsp
	mov	esp, ebp
	pop	ebp
	ret	0
??1?$_Vector_iterator@V?$_Vector_val@U?$_Simple_types@PAVFuzzyTerm@@@std@@@std@@@std@@QAE@XZ ENDP ; std::_Vector_iterator<std::_Vector_val<std::_Simple_types<FuzzyTerm *> > >::~_Vector_iterator<std::_Vector_val<std::_Simple_types<FuzzyTerm *> > >
_TEXT	ENDS
; Function compile flags: /Odtp /RTCsu
; File c:\program files (x86)\microsoft visual studio 14.0\vc\include\vector
;	COMDAT ??E?$_Vector_iterator@V?$_Vector_val@U?$_Simple_types@PAVFuzzyTerm@@@std@@@std@@@std@@QAEAAV01@XZ
_TEXT	SEGMENT
_this$ = -4						; size = 4
??E?$_Vector_iterator@V?$_Vector_val@U?$_Simple_types@PAVFuzzyTerm@@@std@@@std@@@std@@QAEAAV01@XZ PROC ; std::_Vector_iterator<std::_Vector_val<std::_Simple_types<FuzzyTerm *> > >::operator++, COMDAT
; _this$ = ecx

; 340  : 		{	// preincrement

	push	ebp
	mov	ebp, esp
	push	ecx
	mov	DWORD PTR [ebp-4], -858993460		; ccccccccH
	mov	DWORD PTR _this$[ebp], ecx

; 341  : 		++*(_Mybase *)this;

	mov	ecx, DWORD PTR _this$[ebp]
	call	??E?$_Vector_const_iterator@V?$_Vector_val@U?$_Simple_types@PAVFuzzyTerm@@@std@@@std@@@std@@QAEAAV01@XZ ; std::_Vector_const_iterator<std::_Vector_val<std::_Simple_types<FuzzyTerm *> > >::operator++

; 342  : 		return (*this);

	mov	eax, DWORD PTR _this$[ebp]

; 343  : 		}

	add	esp, 4
	cmp	ebp, esp
	call	__RTC_CheckEsp
	mov	esp, ebp
	pop	ebp
	ret	0
??E?$_Vector_iterator@V?$_Vector_val@U?$_Simple_types@PAVFuzzyTerm@@@std@@@std@@@std@@QAEAAV01@XZ ENDP ; std::_Vector_iterator<std::_Vector_val<std::_Simple_types<FuzzyTerm *> > >::operator++
_TEXT	ENDS
; Function compile flags: /Odtp /RTCsu
; File c:\program files (x86)\microsoft visual studio 14.0\vc\include\vector
;	COMDAT ??D?$_Vector_iterator@V?$_Vector_val@U?$_Simple_types@PAVFuzzyTerm@@@std@@@std@@@std@@QBEAAPAVFuzzyTerm@@XZ
_TEXT	SEGMENT
_this$ = -4						; size = 4
??D?$_Vector_iterator@V?$_Vector_val@U?$_Simple_types@PAVFuzzyTerm@@@std@@@std@@@std@@QBEAAPAVFuzzyTerm@@XZ PROC ; std::_Vector_iterator<std::_Vector_val<std::_Simple_types<FuzzyTerm *> > >::operator*, COMDAT
; _this$ = ecx

; 330  : 		{	// return designated object

	push	ebp
	mov	ebp, esp
	push	ecx
	mov	DWORD PTR [ebp-4], -858993460		; ccccccccH
	mov	DWORD PTR _this$[ebp], ecx

; 331  : 		return ((reference)**(_Mybase *)this);

	mov	ecx, DWORD PTR _this$[ebp]
	call	??D?$_Vector_const_iterator@V?$_Vector_val@U?$_Simple_types@PAVFuzzyTerm@@@std@@@std@@@std@@QBEABQAVFuzzyTerm@@XZ ; std::_Vector_const_iterator<std::_Vector_val<std::_Simple_types<FuzzyTerm *> > >::operator*

; 332  : 		}

	add	esp, 4
	cmp	ebp, esp
	call	__RTC_CheckEsp
	mov	esp, ebp
	pop	ebp
	ret	0
??D?$_Vector_iterator@V?$_Vector_val@U?$_Simple_types@PAVFuzzyTerm@@@std@@@std@@@std@@QBEAAPAVFuzzyTerm@@XZ ENDP ; std::_Vector_iterator<std::_Vector_val<std::_Simple_types<FuzzyTerm *> > >::operator*
_TEXT	ENDS
; Function compile flags: /Odtp /RTCsu
; File c:\program files (x86)\microsoft visual studio 14.0\vc\include\vector
;	COMDAT ??0?$_Vector_iterator@V?$_Vector_val@U?$_Simple_types@PAVFuzzyTerm@@@std@@@std@@@std@@QAE@PAPAVFuzzyTerm@@PBU_Container_base12@1@@Z
_TEXT	SEGMENT
_this$ = -4						; size = 4
__Parg$ = 8						; size = 4
__Pvector$ = 12						; size = 4
??0?$_Vector_iterator@V?$_Vector_val@U?$_Simple_types@PAVFuzzyTerm@@@std@@@std@@@std@@QAE@PAPAVFuzzyTerm@@PBU_Container_base12@1@@Z PROC ; std::_Vector_iterator<std::_Vector_val<std::_Simple_types<FuzzyTerm *> > >::_Vector_iterator<std::_Vector_val<std::_Simple_types<FuzzyTerm *> > >, COMDAT
; _this$ = ecx

; 313  : 		{	// construct with pointer _Parg

	push	ebp
	mov	ebp, esp
	push	ecx
	mov	DWORD PTR [ebp-4], -858993460		; ccccccccH
	mov	DWORD PTR _this$[ebp], ecx

; 312  : 		: _Mybase(_Parg, _Pvector)

	mov	eax, DWORD PTR __Pvector$[ebp]
	push	eax
	mov	ecx, DWORD PTR __Parg$[ebp]
	push	ecx
	mov	ecx, DWORD PTR _this$[ebp]
	call	??0?$_Vector_const_iterator@V?$_Vector_val@U?$_Simple_types@PAVFuzzyTerm@@@std@@@std@@@std@@QAE@PAPAVFuzzyTerm@@PBU_Container_base12@1@@Z ; std::_Vector_const_iterator<std::_Vector_val<std::_Simple_types<FuzzyTerm *> > >::_Vector_const_iterator<std::_Vector_val<std::_Simple_types<FuzzyTerm *> > >

; 314  : 		}

	mov	eax, DWORD PTR _this$[ebp]
	add	esp, 4
	cmp	ebp, esp
	call	__RTC_CheckEsp
	mov	esp, ebp
	pop	ebp
	ret	8
??0?$_Vector_iterator@V?$_Vector_val@U?$_Simple_types@PAVFuzzyTerm@@@std@@@std@@@std@@QAE@PAPAVFuzzyTerm@@PBU_Container_base12@1@@Z ENDP ; std::_Vector_iterator<std::_Vector_val<std::_Simple_types<FuzzyTerm *> > >::_Vector_iterator<std::_Vector_val<std::_Simple_types<FuzzyTerm *> > >
_TEXT	ENDS
; Function compile flags: /Odtp /RTCsu
; File c:\program files (x86)\microsoft visual studio 14.0\vc\include\vector
;	COMDAT ??0?$_Vector_iterator@V?$_Vector_val@U?$_Simple_types@PAVFuzzyTerm@@@std@@@std@@@std@@QAE@XZ
_TEXT	SEGMENT
_this$ = -4						; size = 4
??0?$_Vector_iterator@V?$_Vector_val@U?$_Simple_types@PAVFuzzyTerm@@@std@@@std@@@std@@QAE@XZ PROC ; std::_Vector_iterator<std::_Vector_val<std::_Simple_types<FuzzyTerm *> > >::_Vector_iterator<std::_Vector_val<std::_Simple_types<FuzzyTerm *> > >, COMDAT
; _this$ = ecx

; 307  : 	_Vector_iterator()

	push	ebp
	mov	ebp, esp
	push	ecx
	mov	DWORD PTR [ebp-4], -858993460		; ccccccccH
	mov	DWORD PTR _this$[ebp], ecx

; 308  : 		{	// construct with null vector pointer

	mov	ecx, DWORD PTR _this$[ebp]
	call	??0?$_Vector_const_iterator@V?$_Vector_val@U?$_Simple_types@PAVFuzzyTerm@@@std@@@std@@@std@@QAE@XZ ; std::_Vector_const_iterator<std::_Vector_val<std::_Simple_types<FuzzyTerm *> > >::_Vector_const_iterator<std::_Vector_val<std::_Simple_types<FuzzyTerm *> > >

; 309  : 		}

	mov	eax, DWORD PTR _this$[ebp]
	add	esp, 4
	cmp	ebp, esp
	call	__RTC_CheckEsp
	mov	esp, ebp
	pop	ebp
	ret	0
??0?$_Vector_iterator@V?$_Vector_val@U?$_Simple_types@PAVFuzzyTerm@@@std@@@std@@@std@@QAE@XZ ENDP ; std::_Vector_iterator<std::_Vector_val<std::_Simple_types<FuzzyTerm *> > >::_Vector_iterator<std::_Vector_val<std::_Simple_types<FuzzyTerm *> > >
_TEXT	ENDS
; Function compile flags: /Odtp /RTCsu
;	COMDAT ??4?$_Vector_const_iterator@V?$_Vector_val@U?$_Simple_types@PAVFuzzyTerm@@@std@@@std@@@std@@QAEAAV01@$$QAV01@@Z
_TEXT	SEGMENT
_this$ = -4						; size = 4
___that$ = 8						; size = 4
??4?$_Vector_const_iterator@V?$_Vector_val@U?$_Simple_types@PAVFuzzyTerm@@@std@@@std@@@std@@QAEAAV01@$$QAV01@@Z PROC ; std::_Vector_const_iterator<std::_Vector_val<std::_Simple_types<FuzzyTerm *> > >::operator=, COMDAT
; _this$ = ecx
	push	ebp
	mov	ebp, esp
	push	ecx
	mov	DWORD PTR [ebp-4], -858993460		; ccccccccH
	mov	DWORD PTR _this$[ebp], ecx
	mov	eax, DWORD PTR ___that$[ebp]
	push	eax
	mov	ecx, DWORD PTR _this$[ebp]
	call	??4?$_Iterator012@Urandom_access_iterator_tag@std@@PAVFuzzyTerm@@HPBQAV3@ABQAV3@U_Iterator_base12@2@@std@@QAEAAU01@$$QAU01@@Z
	mov	ecx, DWORD PTR _this$[ebp]
	mov	edx, DWORD PTR ___that$[ebp]
	mov	eax, DWORD PTR [edx+8]
	mov	DWORD PTR [ecx+8], eax
	mov	eax, DWORD PTR _this$[ebp]
	add	esp, 4
	cmp	ebp, esp
	call	__RTC_CheckEsp
	mov	esp, ebp
	pop	ebp
	ret	4
??4?$_Vector_const_iterator@V?$_Vector_val@U?$_Simple_types@PAVFuzzyTerm@@@std@@@std@@@std@@QAEAAV01@$$QAV01@@Z ENDP ; std::_Vector_const_iterator<std::_Vector_val<std::_Simple_types<FuzzyTerm *> > >::operator=
_TEXT	ENDS
; Function compile flags: /Odtp /RTCsu
;	COMDAT ??1?$_Vector_const_iterator@V?$_Vector_val@U?$_Simple_types@PAVFuzzyTerm@@@std@@@std@@@std@@QAE@XZ
_TEXT	SEGMENT
_this$ = -4						; size = 4
??1?$_Vector_const_iterator@V?$_Vector_val@U?$_Simple_types@PAVFuzzyTerm@@@std@@@std@@@std@@QAE@XZ PROC ; std::_Vector_const_iterator<std::_Vector_val<std::_Simple_types<FuzzyTerm *> > >::~_Vector_const_iterator<std::_Vector_val<std::_Simple_types<FuzzyTerm *> > >, COMDAT
; _this$ = ecx
	push	ebp
	mov	ebp, esp
	push	ecx
	mov	DWORD PTR [ebp-4], -858993460		; ccccccccH
	mov	DWORD PTR _this$[ebp], ecx
	mov	ecx, DWORD PTR _this$[ebp]
	call	??1?$_Iterator012@Urandom_access_iterator_tag@std@@PAVFuzzyTerm@@HPBQAV3@ABQAV3@U_Iterator_base12@2@@std@@QAE@XZ
	add	esp, 4
	cmp	ebp, esp
	call	__RTC_CheckEsp
	mov	esp, ebp
	pop	ebp
	ret	0
??1?$_Vector_const_iterator@V?$_Vector_val@U?$_Simple_types@PAVFuzzyTerm@@@std@@@std@@@std@@QAE@XZ ENDP ; std::_Vector_const_iterator<std::_Vector_val<std::_Simple_types<FuzzyTerm *> > >::~_Vector_const_iterator<std::_Vector_val<std::_Simple_types<FuzzyTerm *> > >
_TEXT	ENDS
; Function compile flags: /Odtp /RTCsu
; File c:\program files (x86)\microsoft visual studio 14.0\vc\include\vector
;	COMDAT ?_Compat@?$_Vector_const_iterator@V?$_Vector_val@U?$_Simple_types@PAVFuzzyTerm@@@std@@@std@@@std@@QBEXABV12@@Z
_TEXT	SEGMENT
_this$ = -4						; size = 4
__Right$ = 8						; size = 4
?_Compat@?$_Vector_const_iterator@V?$_Vector_val@U?$_Simple_types@PAVFuzzyTerm@@@std@@@std@@@std@@QBEXABV12@@Z PROC ; std::_Vector_const_iterator<std::_Vector_val<std::_Simple_types<FuzzyTerm *> > >::_Compat, COMDAT
; _this$ = ecx

; 245  : 		{	// test for compatible iterator pair

	push	ebp
	mov	ebp, esp
	push	ecx
	push	esi
	mov	DWORD PTR [ebp-4], -858993460		; ccccccccH
	mov	DWORD PTR _this$[ebp], ecx

; 246  : 		if (this->_Getcont() != _Right._Getcont())

	mov	ecx, DWORD PTR _this$[ebp]
	call	?_Getcont@_Iterator_base12@std@@QBEPBU_Container_base12@2@XZ ; std::_Iterator_base12::_Getcont
	mov	esi, eax
	mov	ecx, DWORD PTR __Right$[ebp]
	call	?_Getcont@_Iterator_base12@std@@QBEPBU_Container_base12@2@XZ ; std::_Iterator_base12::_Getcont
	cmp	esi, eax
	je	SHORT $LN1@Compat

; 247  : 			{
; 248  : 			_DEBUG_ERROR("vector iterators incompatible");

	push	248					; 000000f8H
	push	OFFSET ??_C@_1IM@LECEOODI@?$AAC?$AA?3?$AA?2?$AAP?$AAr?$AAo?$AAg?$AAr?$AAa?$AAm?$AA?5?$AAF?$AAi?$AAl?$AAe?$AAs?$AA?5?$AA?$CI?$AAx?$AA8?$AA6?$AA?$CJ?$AA?2?$AAM?$AAi?$AAc?$AAr?$AAo?$AAs?$AAo?$AAf?$AAt@
	push	OFFSET ??_C@_1DM@HINDPMBP@?$AAv?$AAe?$AAc?$AAt?$AAo?$AAr?$AA?5?$AAi?$AAt?$AAe?$AAr?$AAa?$AAt?$AAo?$AAr?$AAs?$AA?5?$AAi?$AAn?$AAc?$AAo?$AAm?$AAp?$AAa?$AAt?$AAi?$AAb?$AAl?$AAe?$AA?$AA@
	call	?_Debug_message@std@@YAXPB_W0I@Z	; std::_Debug_message
	add	esp, 12					; 0000000cH

; 249  : 			_SCL_SECURE_INVALID_ARGUMENT;

	mov	eax, OFFSET ??_C@_0CI@FNPHFCCM@Standard?5C?$CL?$CL?5Libraries?5Invalid?5A@
	test	eax, eax
	je	SHORT $LN4@Compat
	xor	ecx, ecx
	jne	SHORT $LN5@Compat
$LN4@Compat:
	push	OFFSET ??_C@_1FO@GJIHNDLM@?$AA?$CC?$AAS?$AAt?$AAa?$AAn?$AAd?$AAa?$AAr?$AAd?$AA?5?$AAC?$AA?$CL?$AA?$CL?$AA?5?$AAL?$AAi?$AAb?$AAr?$AAa?$AAr?$AAi?$AAe?$AAs?$AA?5?$AAI?$AAn?$AAv?$AAa?$AAl?$AAi?$AAd?$AA?5@
	push	OFFSET ??_C@_17CNPHIMPH@?$AA?$CF?$AAl?$AAs?$AA?$AA@
	push	0
	push	249					; 000000f9H
	push	OFFSET ??_C@_1IM@LECEOODI@?$AAC?$AA?3?$AA?2?$AAP?$AAr?$AAo?$AAg?$AAr?$AAa?$AAm?$AA?5?$AAF?$AAi?$AAl?$AAe?$AAs?$AA?5?$AA?$CI?$AAx?$AA8?$AA6?$AA?$CJ?$AA?2?$AAM?$AAi?$AAc?$AAr?$AAo?$AAs?$AAo?$AAf?$AAt@
	push	2
	call	__CrtDbgReportW
	add	esp, 24					; 00000018H
	cmp	eax, 1
	jne	SHORT $LN5@Compat
	int	3
$LN5@Compat:
	push	0
	push	249					; 000000f9H
	push	OFFSET ??_C@_1IM@LECEOODI@?$AAC?$AA?3?$AA?2?$AAP?$AAr?$AAo?$AAg?$AAr?$AAa?$AAm?$AA?5?$AAF?$AAi?$AAl?$AAe?$AAs?$AA?5?$AA?$CI?$AAx?$AA8?$AA6?$AA?$CJ?$AA?2?$AAM?$AAi?$AAc?$AAr?$AAo?$AAs?$AAo?$AAf?$AAt@
	push	OFFSET ??_C@_1NK@PBOLGCJB@?$AAs?$AAt?$AAd?$AA?3?$AA?3?$AA_?$AAV?$AAe?$AAc?$AAt?$AAo?$AAr?$AA_?$AAc?$AAo?$AAn?$AAs?$AAt?$AA_?$AAi?$AAt?$AAe?$AAr?$AAa?$AAt?$AAo?$AAr?$AA?$DM?$AAc?$AAl?$AAa?$AAs@
	push	OFFSET ??_C@_1CG@JNLFBNGN@?$AA?$CC?$AAi?$AAn?$AAv?$AAa?$AAl?$AAi?$AAd?$AA?5?$AAa?$AAr?$AAg?$AAu?$AAm?$AAe?$AAn?$AAt?$AA?$CC?$AA?$AA@
	call	__invalid_parameter
	add	esp, 20					; 00000014H
$LN1@Compat:

; 250  : 			}
; 251  : 		}

	pop	esi
	add	esp, 4
	cmp	ebp, esp
	call	__RTC_CheckEsp
	mov	esp, ebp
	pop	ebp
	ret	4
?_Compat@?$_Vector_const_iterator@V?$_Vector_val@U?$_Simple_types@PAVFuzzyTerm@@@std@@@std@@@std@@QBEXABV12@@Z ENDP ; std::_Vector_const_iterator<std::_Vector_val<std::_Simple_types<FuzzyTerm *> > >::_Compat
_TEXT	ENDS
; Function compile flags: /Odtp /RTCsu
; File c:\program files (x86)\microsoft visual studio 14.0\vc\include\vector
;	COMDAT ??9?$_Vector_const_iterator@V?$_Vector_val@U?$_Simple_types@PAVFuzzyTerm@@@std@@@std@@@std@@QBE_NABV01@@Z
_TEXT	SEGMENT
tv69 = -8						; size = 4
_this$ = -4						; size = 4
__Right$ = 8						; size = 4
??9?$_Vector_const_iterator@V?$_Vector_val@U?$_Simple_types@PAVFuzzyTerm@@@std@@@std@@@std@@QBE_NABV01@@Z PROC ; std::_Vector_const_iterator<std::_Vector_val<std::_Simple_types<FuzzyTerm *> > >::operator!=, COMDAT
; _this$ = ecx

; 218  : 		{	// test for iterator inequality

	push	ebp
	mov	ebp, esp
	sub	esp, 8
	mov	DWORD PTR [ebp-8], -858993460		; ccccccccH
	mov	DWORD PTR [ebp-4], -858993460		; ccccccccH
	mov	DWORD PTR _this$[ebp], ecx

; 219  : 		return (!(*this == _Right));

	mov	eax, DWORD PTR __Right$[ebp]
	push	eax
	mov	ecx, DWORD PTR _this$[ebp]
	call	??8?$_Vector_const_iterator@V?$_Vector_val@U?$_Simple_types@PAVFuzzyTerm@@@std@@@std@@@std@@QBE_NABV01@@Z ; std::_Vector_const_iterator<std::_Vector_val<std::_Simple_types<FuzzyTerm *> > >::operator==
	movzx	ecx, al
	test	ecx, ecx
	jne	SHORT $LN3@operator
	mov	DWORD PTR tv69[ebp], 1
	jmp	SHORT $LN4@operator
$LN3@operator:
	mov	DWORD PTR tv69[ebp], 0
$LN4@operator:
	mov	al, BYTE PTR tv69[ebp]

; 220  : 		}

	add	esp, 8
	cmp	ebp, esp
	call	__RTC_CheckEsp
	mov	esp, ebp
	pop	ebp
	ret	4
??9?$_Vector_const_iterator@V?$_Vector_val@U?$_Simple_types@PAVFuzzyTerm@@@std@@@std@@@std@@QBE_NABV01@@Z ENDP ; std::_Vector_const_iterator<std::_Vector_val<std::_Simple_types<FuzzyTerm *> > >::operator!=
_TEXT	ENDS
; Function compile flags: /Odtp /RTCsu
; File c:\program files (x86)\microsoft visual studio 14.0\vc\include\vector
;	COMDAT ??8?$_Vector_const_iterator@V?$_Vector_val@U?$_Simple_types@PAVFuzzyTerm@@@std@@@std@@@std@@QBE_NABV01@@Z
_TEXT	SEGMENT
tv69 = -8						; size = 4
_this$ = -4						; size = 4
__Right$ = 8						; size = 4
??8?$_Vector_const_iterator@V?$_Vector_val@U?$_Simple_types@PAVFuzzyTerm@@@std@@@std@@@std@@QBE_NABV01@@Z PROC ; std::_Vector_const_iterator<std::_Vector_val<std::_Simple_types<FuzzyTerm *> > >::operator==, COMDAT
; _this$ = ecx

; 212  : 		{	// test for iterator equality

	push	ebp
	mov	ebp, esp
	sub	esp, 8
	mov	DWORD PTR [ebp-8], -858993460		; ccccccccH
	mov	DWORD PTR [ebp-4], -858993460		; ccccccccH
	mov	DWORD PTR _this$[ebp], ecx

; 213  : 		_Compat(_Right);

	mov	eax, DWORD PTR __Right$[ebp]
	push	eax
	mov	ecx, DWORD PTR _this$[ebp]
	call	?_Compat@?$_Vector_const_iterator@V?$_Vector_val@U?$_Simple_types@PAVFuzzyTerm@@@std@@@std@@@std@@QBEXABV12@@Z ; std::_Vector_const_iterator<std::_Vector_val<std::_Simple_types<FuzzyTerm *> > >::_Compat

; 214  : 		return (_Ptr == _Right._Ptr);

	mov	ecx, DWORD PTR _this$[ebp]
	mov	edx, DWORD PTR __Right$[ebp]
	mov	eax, DWORD PTR [ecx+8]
	cmp	eax, DWORD PTR [edx+8]
	jne	SHORT $LN3@operator
	mov	DWORD PTR tv69[ebp], 1
	jmp	SHORT $LN4@operator
$LN3@operator:
	mov	DWORD PTR tv69[ebp], 0
$LN4@operator:
	mov	al, BYTE PTR tv69[ebp]

; 215  : 		}

	add	esp, 8
	cmp	ebp, esp
	call	__RTC_CheckEsp
	mov	esp, ebp
	pop	ebp
	ret	4
??8?$_Vector_const_iterator@V?$_Vector_val@U?$_Simple_types@PAVFuzzyTerm@@@std@@@std@@@std@@QBE_NABV01@@Z ENDP ; std::_Vector_const_iterator<std::_Vector_val<std::_Simple_types<FuzzyTerm *> > >::operator==
_TEXT	ENDS
; Function compile flags: /Odtp /RTCsu
; File c:\program files (x86)\microsoft visual studio 14.0\vc\include\vector
;	COMDAT ??E?$_Vector_const_iterator@V?$_Vector_val@U?$_Simple_types@PAVFuzzyTerm@@@std@@@std@@@std@@QAEAAV01@XZ
_TEXT	SEGMENT
__Mycont$ = -8						; size = 4
_this$ = -4						; size = 4
??E?$_Vector_const_iterator@V?$_Vector_val@U?$_Simple_types@PAVFuzzyTerm@@@std@@@std@@@std@@QAEAAV01@XZ PROC ; std::_Vector_const_iterator<std::_Vector_val<std::_Simple_types<FuzzyTerm *> > >::operator++, COMDAT
; _this$ = ecx

; 95   : 		{	// preincrement

	push	ebp
	mov	ebp, esp
	sub	esp, 8
	mov	DWORD PTR [ebp-8], -858993460		; ccccccccH
	mov	DWORD PTR [ebp-4], -858993460		; ccccccccH
	mov	DWORD PTR _this$[ebp], ecx

; 96   :  #if _ITERATOR_DEBUG_LEVEL == 2
; 97   : 		const auto _Mycont = static_cast<const _Myvec *>(this->_Getcont());

	mov	ecx, DWORD PTR _this$[ebp]
	call	?_Getcont@_Iterator_base12@std@@QBEPBU_Container_base12@2@XZ ; std::_Iterator_base12::_Getcont
	mov	DWORD PTR __Mycont$[ebp], eax

; 98   : 		if (_Mycont == 0
; 99   : 			|| _Ptr == nullptr_t{}
; 100  : 			|| _Mycont->_Mylast <= _Ptr)

	cmp	DWORD PTR __Mycont$[ebp], 0
	je	SHORT $LN3@operator
	mov	eax, DWORD PTR _this$[ebp]
	cmp	DWORD PTR [eax+8], 0
	je	SHORT $LN3@operator
	mov	ecx, DWORD PTR __Mycont$[ebp]
	mov	edx, DWORD PTR _this$[ebp]
	mov	eax, DWORD PTR [ecx+8]
	cmp	eax, DWORD PTR [edx+8]
	ja	SHORT $LN2@operator
$LN3@operator:

; 101  : 			{	// report error
; 102  : 			_DEBUG_ERROR("vector iterator not incrementable");

	push	102					; 00000066H
	push	OFFSET ??_C@_1IM@LECEOODI@?$AAC?$AA?3?$AA?2?$AAP?$AAr?$AAo?$AAg?$AAr?$AAa?$AAm?$AA?5?$AAF?$AAi?$AAl?$AAe?$AAs?$AA?5?$AA?$CI?$AAx?$AA8?$AA6?$AA?$CJ?$AA?2?$AAM?$AAi?$AAc?$AAr?$AAo?$AAs?$AAo?$AAf?$AAt@
	push	OFFSET ??_C@_1EE@EJDKCLKB@?$AAv?$AAe?$AAc?$AAt?$AAo?$AAr?$AA?5?$AAi?$AAt?$AAe?$AAr?$AAa?$AAt?$AAo?$AAr?$AA?5?$AAn?$AAo?$AAt?$AA?5?$AAi?$AAn?$AAc?$AAr?$AAe?$AAm?$AAe?$AAn?$AAt?$AAa?$AAb?$AAl@
	call	?_Debug_message@std@@YAXPB_W0I@Z	; std::_Debug_message
	add	esp, 12					; 0000000cH

; 103  : 			_SCL_SECURE_OUT_OF_RANGE;

	mov	ecx, OFFSET ??_C@_0CE@OFMIGAMM@Standard?5C?$CL?$CL?5Libraries?5Out?5of?5Ra@
	test	ecx, ecx
	je	SHORT $LN5@operator
	xor	edx, edx
	jne	SHORT $LN6@operator
$LN5@operator:
	push	OFFSET ??_C@_1FG@IBPIFFN@?$AA?$CC?$AAS?$AAt?$AAa?$AAn?$AAd?$AAa?$AAr?$AAd?$AA?5?$AAC?$AA?$CL?$AA?$CL?$AA?5?$AAL?$AAi?$AAb?$AAr?$AAa?$AAr?$AAi?$AAe?$AAs?$AA?5?$AAO?$AAu?$AAt?$AA?5?$AAo?$AAf?$AA?5?$AAR@
	push	OFFSET ??_C@_17CNPHIMPH@?$AA?$CF?$AAl?$AAs?$AA?$AA@
	push	0
	push	103					; 00000067H
	push	OFFSET ??_C@_1IM@LECEOODI@?$AAC?$AA?3?$AA?2?$AAP?$AAr?$AAo?$AAg?$AAr?$AAa?$AAm?$AA?5?$AAF?$AAi?$AAl?$AAe?$AAs?$AA?5?$AA?$CI?$AAx?$AA8?$AA6?$AA?$CJ?$AA?2?$AAM?$AAi?$AAc?$AAr?$AAo?$AAs?$AAo?$AAf?$AAt@
	push	2
	call	__CrtDbgReportW
	add	esp, 24					; 00000018H
	cmp	eax, 1
	jne	SHORT $LN6@operator
	int	3
$LN6@operator:
	push	0
	push	103					; 00000067H
	push	OFFSET ??_C@_1IM@LECEOODI@?$AAC?$AA?3?$AA?2?$AAP?$AAr?$AAo?$AAg?$AAr?$AAa?$AAm?$AA?5?$AAF?$AAi?$AAl?$AAe?$AAs?$AA?5?$AA?$CI?$AAx?$AA8?$AA6?$AA?$CJ?$AA?2?$AAM?$AAi?$AAc?$AAr?$AAo?$AAs?$AAo?$AAf?$AAt@
	push	OFFSET ??_C@_1OC@CGPGIJAB@?$AAs?$AAt?$AAd?$AA?3?$AA?3?$AA_?$AAV?$AAe?$AAc?$AAt?$AAo?$AAr?$AA_?$AAc?$AAo?$AAn?$AAs?$AAt?$AA_?$AAi?$AAt?$AAe?$AAr?$AAa?$AAt?$AAo?$AAr?$AA?$DM?$AAc?$AAl?$AAa?$AAs@
	push	OFFSET ??_C@_1BO@MEPPHOO@?$AA?$CC?$AAo?$AAu?$AAt?$AA?5?$AAo?$AAf?$AA?5?$AAr?$AAa?$AAn?$AAg?$AAe?$AA?$CC?$AA?$AA@
	call	__invalid_parameter
	add	esp, 20					; 00000014H
$LN2@operator:

; 104  : 			}
; 105  : 
; 106  :  #elif _ITERATOR_DEBUG_LEVEL == 1
; 107  : 		_SCL_SECURE_VALIDATE(_Ptr != _Tptr());
; 108  : 		const auto _Mycont = static_cast<const _Myvec *>(this->_Getcont());
; 109  : 		_SCL_SECURE_VALIDATE(_Mycont != 0);
; 110  : 		_SCL_SECURE_VALIDATE_RANGE(_Ptr < _Mycont->_Mylast);
; 111  :  #endif /* _ITERATOR_DEBUG_LEVEL */
; 112  : 
; 113  : 		++_Ptr;

	mov	ecx, DWORD PTR _this$[ebp]
	mov	edx, DWORD PTR [ecx+8]
	add	edx, 4
	mov	eax, DWORD PTR _this$[ebp]
	mov	DWORD PTR [eax+8], edx

; 114  : 		return (*this);

	mov	eax, DWORD PTR _this$[ebp]

; 115  : 		}

	add	esp, 8
	cmp	ebp, esp
	call	__RTC_CheckEsp
	mov	esp, ebp
	pop	ebp
	ret	0
??E?$_Vector_const_iterator@V?$_Vector_val@U?$_Simple_types@PAVFuzzyTerm@@@std@@@std@@@std@@QAEAAV01@XZ ENDP ; std::_Vector_const_iterator<std::_Vector_val<std::_Simple_types<FuzzyTerm *> > >::operator++
_TEXT	ENDS
; Function compile flags: /Odtp /RTCsu
; File c:\program files (x86)\microsoft visual studio 14.0\vc\include\vector
;	COMDAT ??D?$_Vector_const_iterator@V?$_Vector_val@U?$_Simple_types@PAVFuzzyTerm@@@std@@@std@@@std@@QBEABQAVFuzzyTerm@@XZ
_TEXT	SEGMENT
__Mycont$ = -8						; size = 4
_this$ = -4						; size = 4
??D?$_Vector_const_iterator@V?$_Vector_val@U?$_Simple_types@PAVFuzzyTerm@@@std@@@std@@@std@@QBEABQAVFuzzyTerm@@XZ PROC ; std::_Vector_const_iterator<std::_Vector_val<std::_Simple_types<FuzzyTerm *> > >::operator*, COMDAT
; _this$ = ecx

; 65   : 		{	// return designated object

	push	ebp
	mov	ebp, esp
	sub	esp, 8
	mov	DWORD PTR [ebp-8], -858993460		; ccccccccH
	mov	DWORD PTR [ebp-4], -858993460		; ccccccccH
	mov	DWORD PTR _this$[ebp], ecx

; 66   :  #if _ITERATOR_DEBUG_LEVEL == 2
; 67   : 		const auto _Mycont = static_cast<const _Myvec *>(this->_Getcont());

	mov	ecx, DWORD PTR _this$[ebp]
	call	?_Getcont@_Iterator_base12@std@@QBEPBU_Container_base12@2@XZ ; std::_Iterator_base12::_Getcont
	mov	DWORD PTR __Mycont$[ebp], eax

; 68   : 		if (_Mycont == 0
; 69   : 			|| _Ptr == _Tptr()
; 70   : 			|| _Ptr < _Mycont->_Myfirst
; 71   : 			|| _Mycont->_Mylast <= _Ptr)

	cmp	DWORD PTR __Mycont$[ebp], 0
	je	SHORT $LN3@operator
	mov	eax, DWORD PTR _this$[ebp]
	cmp	DWORD PTR [eax+8], 0
	je	SHORT $LN3@operator
	mov	ecx, DWORD PTR _this$[ebp]
	mov	edx, DWORD PTR __Mycont$[ebp]
	mov	eax, DWORD PTR [ecx+8]
	cmp	eax, DWORD PTR [edx+4]
	jb	SHORT $LN3@operator
	mov	ecx, DWORD PTR __Mycont$[ebp]
	mov	edx, DWORD PTR _this$[ebp]
	mov	eax, DWORD PTR [ecx+8]
	cmp	eax, DWORD PTR [edx+8]
	ja	SHORT $LN2@operator
$LN3@operator:

; 72   : 			{	// report error
; 73   : 			_DEBUG_ERROR("vector iterator not dereferencable");

	push	73					; 00000049H
	push	OFFSET ??_C@_1IM@LECEOODI@?$AAC?$AA?3?$AA?2?$AAP?$AAr?$AAo?$AAg?$AAr?$AAa?$AAm?$AA?5?$AAF?$AAi?$AAl?$AAe?$AAs?$AA?5?$AA?$CI?$AAx?$AA8?$AA6?$AA?$CJ?$AA?2?$AAM?$AAi?$AAc?$AAr?$AAo?$AAs?$AAo?$AAf?$AAt@
	push	OFFSET ??_C@_1EG@FOHJJHAC@?$AAv?$AAe?$AAc?$AAt?$AAo?$AAr?$AA?5?$AAi?$AAt?$AAe?$AAr?$AAa?$AAt?$AAo?$AAr?$AA?5?$AAn?$AAo?$AAt?$AA?5?$AAd?$AAe?$AAr?$AAe?$AAf?$AAe?$AAr?$AAe?$AAn?$AAc?$AAa?$AAb@
	call	?_Debug_message@std@@YAXPB_W0I@Z	; std::_Debug_message
	add	esp, 12					; 0000000cH

; 74   : 			_SCL_SECURE_OUT_OF_RANGE;

	mov	ecx, OFFSET ??_C@_0CE@OFMIGAMM@Standard?5C?$CL?$CL?5Libraries?5Out?5of?5Ra@
	test	ecx, ecx
	je	SHORT $LN5@operator
	xor	edx, edx
	jne	SHORT $LN6@operator
$LN5@operator:
	push	OFFSET ??_C@_1FG@IBPIFFN@?$AA?$CC?$AAS?$AAt?$AAa?$AAn?$AAd?$AAa?$AAr?$AAd?$AA?5?$AAC?$AA?$CL?$AA?$CL?$AA?5?$AAL?$AAi?$AAb?$AAr?$AAa?$AAr?$AAi?$AAe?$AAs?$AA?5?$AAO?$AAu?$AAt?$AA?5?$AAo?$AAf?$AA?5?$AAR@
	push	OFFSET ??_C@_17CNPHIMPH@?$AA?$CF?$AAl?$AAs?$AA?$AA@
	push	0
	push	74					; 0000004aH
	push	OFFSET ??_C@_1IM@LECEOODI@?$AAC?$AA?3?$AA?2?$AAP?$AAr?$AAo?$AAg?$AAr?$AAa?$AAm?$AA?5?$AAF?$AAi?$AAl?$AAe?$AAs?$AA?5?$AA?$CI?$AAx?$AA8?$AA6?$AA?$CJ?$AA?2?$AAM?$AAi?$AAc?$AAr?$AAo?$AAs?$AAo?$AAf?$AAt@
	push	2
	call	__CrtDbgReportW
	add	esp, 24					; 00000018H
	cmp	eax, 1
	jne	SHORT $LN6@operator
	int	3
$LN6@operator:
	push	0
	push	74					; 0000004aH
	push	OFFSET ??_C@_1IM@LECEOODI@?$AAC?$AA?3?$AA?2?$AAP?$AAr?$AAo?$AAg?$AAr?$AAa?$AAm?$AA?5?$AAF?$AAi?$AAl?$AAe?$AAs?$AA?5?$AA?$CI?$AAx?$AA8?$AA6?$AA?$CJ?$AA?2?$AAM?$AAi?$AAc?$AAr?$AAo?$AAs?$AAo?$AAf?$AAt@
	push	OFFSET ??_C@_1OA@BIBNCNDA@?$AAs?$AAt?$AAd?$AA?3?$AA?3?$AA_?$AAV?$AAe?$AAc?$AAt?$AAo?$AAr?$AA_?$AAc?$AAo?$AAn?$AAs?$AAt?$AA_?$AAi?$AAt?$AAe?$AAr?$AAa?$AAt?$AAo?$AAr?$AA?$DM?$AAc?$AAl?$AAa?$AAs@
	push	OFFSET ??_C@_1BO@MEPPHOO@?$AA?$CC?$AAo?$AAu?$AAt?$AA?5?$AAo?$AAf?$AA?5?$AAr?$AAa?$AAn?$AAg?$AAe?$AA?$CC?$AA?$AA@
	call	__invalid_parameter
	add	esp, 20					; 00000014H
$LN2@operator:

; 75   : 			}
; 76   : 
; 77   :  #elif _ITERATOR_DEBUG_LEVEL == 1
; 78   : 		_SCL_SECURE_VALIDATE(_Ptr != _Tptr());
; 79   : 		const auto _Mycont = static_cast<const _Myvec *>(this->_Getcont());
; 80   : 		_SCL_SECURE_VALIDATE(_Mycont != 0);
; 81   : 		_SCL_SECURE_VALIDATE_RANGE(_Mycont->_Myfirst <= _Ptr && _Ptr < _Mycont->_Mylast);
; 82   :  #endif /* _ITERATOR_DEBUG_LEVEL */
; 83   : 
; 84   : 		_Analysis_assume_(_Ptr != _Tptr());
; 85   : 
; 86   : 		return (*_Ptr);

	mov	ecx, DWORD PTR _this$[ebp]
	mov	eax, DWORD PTR [ecx+8]

; 87   : 		}

	add	esp, 8
	cmp	ebp, esp
	call	__RTC_CheckEsp
	mov	esp, ebp
	pop	ebp
	ret	0
??D?$_Vector_const_iterator@V?$_Vector_val@U?$_Simple_types@PAVFuzzyTerm@@@std@@@std@@@std@@QBEABQAVFuzzyTerm@@XZ ENDP ; std::_Vector_const_iterator<std::_Vector_val<std::_Simple_types<FuzzyTerm *> > >::operator*
_TEXT	ENDS
; Function compile flags: /Odtp /RTCsu
; File c:\program files (x86)\microsoft visual studio 14.0\vc\include\vector
;	COMDAT ??0?$_Vector_const_iterator@V?$_Vector_val@U?$_Simple_types@PAVFuzzyTerm@@@std@@@std@@@std@@QAE@PAPAVFuzzyTerm@@PBU_Container_base12@1@@Z
_TEXT	SEGMENT
_this$ = -16						; size = 4
__$EHRec$ = -12						; size = 12
__Parg$ = 8						; size = 4
__Pvector$ = 12						; size = 4
??0?$_Vector_const_iterator@V?$_Vector_val@U?$_Simple_types@PAVFuzzyTerm@@@std@@@std@@@std@@QAE@PAPAVFuzzyTerm@@PBU_Container_base12@1@@Z PROC ; std::_Vector_const_iterator<std::_Vector_val<std::_Simple_types<FuzzyTerm *> > >::_Vector_const_iterator<std::_Vector_val<std::_Simple_types<FuzzyTerm *> > >, COMDAT
; _this$ = ecx

; 47   : 		{	// construct with pointer _Parg

	push	ebp
	mov	ebp, esp
	push	-1
	push	__ehhandler$??0?$_Vector_const_iterator@V?$_Vector_val@U?$_Simple_types@PAVFuzzyTerm@@@std@@@std@@@std@@QAE@PAPAVFuzzyTerm@@PBU_Container_base12@1@@Z
	mov	eax, DWORD PTR fs:0
	push	eax
	push	ecx
	mov	DWORD PTR [ebp-16], -858993460		; ccccccccH
	mov	eax, DWORD PTR ___security_cookie
	xor	eax, ebp
	push	eax
	lea	eax, DWORD PTR __$EHRec$[ebp]
	mov	DWORD PTR fs:0, eax
	mov	DWORD PTR _this$[ebp], ecx
	mov	ecx, DWORD PTR _this$[ebp]
	call	??0?$_Iterator012@Urandom_access_iterator_tag@std@@PAVFuzzyTerm@@HPBQAV3@ABQAV3@U_Iterator_base12@2@@std@@QAE@XZ
	mov	DWORD PTR __$EHRec$[ebp+8], 0

; 46   : 		: _Ptr(_Parg)

	mov	eax, DWORD PTR _this$[ebp]
	mov	ecx, DWORD PTR __Parg$[ebp]
	mov	DWORD PTR [eax+8], ecx

; 48   : 		this->_Adopt(_Pvector);

	mov	edx, DWORD PTR __Pvector$[ebp]
	push	edx
	mov	ecx, DWORD PTR _this$[ebp]
	call	?_Adopt@_Iterator_base12@std@@QAEXPBU_Container_base12@2@@Z ; std::_Iterator_base12::_Adopt

; 49   : 		}

	mov	DWORD PTR __$EHRec$[ebp+8], -1
	mov	eax, DWORD PTR _this$[ebp]
	mov	ecx, DWORD PTR __$EHRec$[ebp]
	mov	DWORD PTR fs:0, ecx
	pop	ecx
	add	esp, 16					; 00000010H
	cmp	ebp, esp
	call	__RTC_CheckEsp
	mov	esp, ebp
	pop	ebp
	ret	8
_TEXT	ENDS
;	COMDAT text$x
text$x	SEGMENT
__unwindfunclet$??0?$_Vector_const_iterator@V?$_Vector_val@U?$_Simple_types@PAVFuzzyTerm@@@std@@@std@@@std@@QAE@PAPAVFuzzyTerm@@PBU_Container_base12@1@@Z$0:
	mov	ecx, DWORD PTR _this$[ebp]
	jmp	??1?$_Iterator012@Urandom_access_iterator_tag@std@@PAVFuzzyTerm@@HPBQAV3@ABQAV3@U_Iterator_base12@2@@std@@QAE@XZ
__ehhandler$??0?$_Vector_const_iterator@V?$_Vector_val@U?$_Simple_types@PAVFuzzyTerm@@@std@@@std@@@std@@QAE@PAPAVFuzzyTerm@@PBU_Container_base12@1@@Z:
	mov	edx, DWORD PTR [esp+8]
	lea	eax, DWORD PTR [edx+12]
	mov	ecx, DWORD PTR [edx-8]
	xor	ecx, eax
	call	@__security_check_cookie@4
	mov	eax, OFFSET __ehfuncinfo$??0?$_Vector_const_iterator@V?$_Vector_val@U?$_Simple_types@PAVFuzzyTerm@@@std@@@std@@@std@@QAE@PAPAVFuzzyTerm@@PBU_Container_base12@1@@Z
	jmp	___CxxFrameHandler3
text$x	ENDS
??0?$_Vector_const_iterator@V?$_Vector_val@U?$_Simple_types@PAVFuzzyTerm@@@std@@@std@@@std@@QAE@PAPAVFuzzyTerm@@PBU_Container_base12@1@@Z ENDP ; std::_Vector_const_iterator<std::_Vector_val<std::_Simple_types<FuzzyTerm *> > >::_Vector_const_iterator<std::_Vector_val<std::_Simple_types<FuzzyTerm *> > >
; Function compile flags: /Odtp /RTCsu
; File c:\program files (x86)\microsoft visual studio 14.0\vc\include\vector
;	COMDAT ??0?$_Vector_const_iterator@V?$_Vector_val@U?$_Simple_types@PAVFuzzyTerm@@@std@@@std@@@std@@QAE@XZ
_TEXT	SEGMENT
_this$ = -4						; size = 4
??0?$_Vector_const_iterator@V?$_Vector_val@U?$_Simple_types@PAVFuzzyTerm@@@std@@@std@@@std@@QAE@XZ PROC ; std::_Vector_const_iterator<std::_Vector_val<std::_Simple_types<FuzzyTerm *> > >::_Vector_const_iterator<std::_Vector_val<std::_Simple_types<FuzzyTerm *> > >, COMDAT
; _this$ = ecx

; 42   : 		{	// construct with null pointer

	push	ebp
	mov	ebp, esp
	push	ecx
	mov	DWORD PTR [ebp-4], -858993460		; ccccccccH
	mov	DWORD PTR _this$[ebp], ecx
	mov	ecx, DWORD PTR _this$[ebp]
	call	??0?$_Iterator012@Urandom_access_iterator_tag@std@@PAVFuzzyTerm@@HPBQAV3@ABQAV3@U_Iterator_base12@2@@std@@QAE@XZ

; 41   : 		: _Ptr()

	mov	eax, DWORD PTR _this$[ebp]
	mov	DWORD PTR [eax+8], 0

; 43   : 		}

	mov	eax, DWORD PTR _this$[ebp]
	add	esp, 4
	cmp	ebp, esp
	call	__RTC_CheckEsp
	mov	esp, ebp
	pop	ebp
	ret	0
??0?$_Vector_const_iterator@V?$_Vector_val@U?$_Simple_types@PAVFuzzyTerm@@@std@@@std@@@std@@QAE@XZ ENDP ; std::_Vector_const_iterator<std::_Vector_val<std::_Simple_types<FuzzyTerm *> > >::_Vector_const_iterator<std::_Vector_val<std::_Simple_types<FuzzyTerm *> > >
_TEXT	ENDS
; Function compile flags: /Odtp /RTCsu
;	COMDAT ??4?$_Iterator012@Urandom_access_iterator_tag@std@@PAVFuzzyTerm@@HPBQAV3@ABQAV3@U_Iterator_base12@2@@std@@QAEAAU01@$$QAU01@@Z
_TEXT	SEGMENT
_this$ = -4						; size = 4
___that$ = 8						; size = 4
??4?$_Iterator012@Urandom_access_iterator_tag@std@@PAVFuzzyTerm@@HPBQAV3@ABQAV3@U_Iterator_base12@2@@std@@QAEAAU01@$$QAU01@@Z PROC ; std::_Iterator012<std::random_access_iterator_tag,FuzzyTerm *,int,FuzzyTerm * const *,FuzzyTerm * const &,std::_Iterator_base12>::operator=, COMDAT
; _this$ = ecx
	push	ebp
	mov	ebp, esp
	push	ecx
	mov	DWORD PTR [ebp-4], -858993460		; ccccccccH
	mov	DWORD PTR _this$[ebp], ecx
	mov	eax, DWORD PTR ___that$[ebp]
	push	eax
	mov	ecx, DWORD PTR _this$[ebp]
	call	??4_Iterator_base12@std@@QAEAAU01@ABU01@@Z ; std::_Iterator_base12::operator=
	mov	eax, DWORD PTR _this$[ebp]
	add	esp, 4
	cmp	ebp, esp
	call	__RTC_CheckEsp
	mov	esp, ebp
	pop	ebp
	ret	4
??4?$_Iterator012@Urandom_access_iterator_tag@std@@PAVFuzzyTerm@@HPBQAV3@ABQAV3@U_Iterator_base12@2@@std@@QAEAAU01@$$QAU01@@Z ENDP ; std::_Iterator012<std::random_access_iterator_tag,FuzzyTerm *,int,FuzzyTerm * const *,FuzzyTerm * const &,std::_Iterator_base12>::operator=
_TEXT	ENDS
; Function compile flags: /Odtp /RTCsu
;	COMDAT ??1?$_Iterator012@Urandom_access_iterator_tag@std@@PAVFuzzyTerm@@HPBQAV3@ABQAV3@U_Iterator_base12@2@@std@@QAE@XZ
_TEXT	SEGMENT
_this$ = -4						; size = 4
??1?$_Iterator012@Urandom_access_iterator_tag@std@@PAVFuzzyTerm@@HPBQAV3@ABQAV3@U_Iterator_base12@2@@std@@QAE@XZ PROC ; std::_Iterator012<std::random_access_iterator_tag,FuzzyTerm *,int,FuzzyTerm * const *,FuzzyTerm * const &,std::_Iterator_base12>::~_Iterator012<std::random_access_iterator_tag,FuzzyTerm *,int,FuzzyTerm * const *,FuzzyTerm * const &,std::_Iterator_base12>, COMDAT
; _this$ = ecx
	push	ebp
	mov	ebp, esp
	push	ecx
	mov	DWORD PTR [ebp-4], -858993460		; ccccccccH
	mov	DWORD PTR _this$[ebp], ecx
	mov	ecx, DWORD PTR _this$[ebp]
	call	??1_Iterator_base12@std@@QAE@XZ		; std::_Iterator_base12::~_Iterator_base12
	add	esp, 4
	cmp	ebp, esp
	call	__RTC_CheckEsp
	mov	esp, ebp
	pop	ebp
	ret	0
??1?$_Iterator012@Urandom_access_iterator_tag@std@@PAVFuzzyTerm@@HPBQAV3@ABQAV3@U_Iterator_base12@2@@std@@QAE@XZ ENDP ; std::_Iterator012<std::random_access_iterator_tag,FuzzyTerm *,int,FuzzyTerm * const *,FuzzyTerm * const &,std::_Iterator_base12>::~_Iterator012<std::random_access_iterator_tag,FuzzyTerm *,int,FuzzyTerm * const *,FuzzyTerm * const &,std::_Iterator_base12>
_TEXT	ENDS
; Function compile flags: /Odtp /RTCsu
;	COMDAT ??0?$_Iterator012@Urandom_access_iterator_tag@std@@PAVFuzzyTerm@@HPBQAV3@ABQAV3@U_Iterator_base12@2@@std@@QAE@XZ
_TEXT	SEGMENT
_this$ = -4						; size = 4
??0?$_Iterator012@Urandom_access_iterator_tag@std@@PAVFuzzyTerm@@HPBQAV3@ABQAV3@U_Iterator_base12@2@@std@@QAE@XZ PROC ; std::_Iterator012<std::random_access_iterator_tag,FuzzyTerm *,int,FuzzyTerm * const *,FuzzyTerm * const &,std::_Iterator_base12>::_Iterator012<std::random_access_iterator_tag,FuzzyTerm *,int,FuzzyTerm * const *,FuzzyTerm * const &,std::_Iterator_base12>, COMDAT
; _this$ = ecx
	push	ebp
	mov	ebp, esp
	push	ecx
	mov	DWORD PTR [ebp-4], -858993460		; ccccccccH
	mov	DWORD PTR _this$[ebp], ecx
	mov	ecx, DWORD PTR _this$[ebp]
	call	??0_Iterator_base12@std@@QAE@XZ		; std::_Iterator_base12::_Iterator_base12
	mov	eax, DWORD PTR _this$[ebp]
	add	esp, 4
	cmp	ebp, esp
	call	__RTC_CheckEsp
	mov	esp, ebp
	pop	ebp
	ret	0
??0?$_Iterator012@Urandom_access_iterator_tag@std@@PAVFuzzyTerm@@HPBQAV3@ABQAV3@U_Iterator_base12@2@@std@@QAE@XZ ENDP ; std::_Iterator012<std::random_access_iterator_tag,FuzzyTerm *,int,FuzzyTerm * const *,FuzzyTerm * const &,std::_Iterator_base12>::_Iterator012<std::random_access_iterator_tag,FuzzyTerm *,int,FuzzyTerm * const *,FuzzyTerm * const &,std::_Iterator_base12>
_TEXT	ENDS
; Function compile flags: /Odtp /RTCsu
;	COMDAT ??_GFzOR@@UAEPAXI@Z
_TEXT	SEGMENT
_this$ = -4						; size = 4
___flags$ = 8						; size = 4
??_GFzOR@@UAEPAXI@Z PROC				; FzOR::`scalar deleting destructor', COMDAT
; _this$ = ecx
	push	ebp
	mov	ebp, esp
	push	ecx
	mov	DWORD PTR [ebp-4], -858993460		; ccccccccH
	mov	DWORD PTR _this$[ebp], ecx
	mov	ecx, DWORD PTR _this$[ebp]
	call	??1FzOR@@UAE@XZ				; FzOR::~FzOR
	mov	eax, DWORD PTR ___flags$[ebp]
	and	eax, 1
	je	SHORT $LN2@scalar
	push	20					; 00000014H
	mov	ecx, DWORD PTR _this$[ebp]
	push	ecx
	call	??3@YAXPAXI@Z				; operator delete
	add	esp, 8
$LN2@scalar:
	mov	eax, DWORD PTR _this$[ebp]
	add	esp, 4
	cmp	ebp, esp
	call	__RTC_CheckEsp
	mov	esp, ebp
	pop	ebp
	ret	4
??_GFzOR@@UAEPAXI@Z ENDP				; FzOR::`scalar deleting destructor'
_TEXT	ENDS
; Function compile flags: /Odtp /RTCsu
; File g:\doom\new kingdom\game development [torrents.ru]\ai\programming game ai by example\buckland_aisource\common\fuzzy\fuzzyoperators.h
;	COMDAT ?ORwithDOM@FzOR@@UAEXN@Z
_TEXT	SEGMENT
_this$ = -4						; size = 4
_val$ = 8						; size = 8
?ORwithDOM@FzOR@@UAEXN@Z PROC				; FzOR::ORwithDOM, COMDAT
; _this$ = ecx

; 87   :   void ORwithDOM(double val){assert(0 && "<FzOR::ORwithDOM>: invalid context");}

	push	ebp
	mov	ebp, esp
	push	ecx
	mov	DWORD PTR [ebp-4], -858993460		; ccccccccH
	mov	DWORD PTR _this$[ebp], ecx
	xor	eax, eax
	jne	SHORT $LN1@ORwithDOM
	push	87					; 00000057H
	push	OFFSET ??_C@_1BAK@KLDFNOCP@?$AAg?$AA?3?$AA?2?$AAd?$AAo?$AAo?$AAm?$AA?2?$AAn?$AAe?$AAw?$AA?5?$AAk?$AAi?$AAn?$AAg?$AAd?$AAo?$AAm?$AA?2?$AAg?$AAa?$AAm?$AAe?$AA?5?$AAd?$AAe?$AAv?$AAe?$AAl?$AAo?$AAp@
	push	OFFSET ??_C@_1FE@EKNHDPMB@?$AA0?$AA?5?$AA?$CG?$AA?$CG?$AA?5?$AA?$CC?$AA?$DM?$AAF?$AAz?$AAO?$AAR?$AA?3?$AA?3?$AAO?$AAR?$AAw?$AAi?$AAt?$AAh?$AAD?$AAO?$AAM?$AA?$DO?$AA?3?$AA?5?$AAi?$AAn?$AAv?$AAa?$AAl?$AAi?$AAd@
	call	__wassert
	add	esp, 12					; 0000000cH
$LN1@ORwithDOM:
	add	esp, 4
	cmp	ebp, esp
	call	__RTC_CheckEsp
	mov	esp, ebp
	pop	ebp
	ret	8
?ORwithDOM@FzOR@@UAEXN@Z ENDP				; FzOR::ORwithDOM
_TEXT	ENDS
; Function compile flags: /Odtp /RTCsu
; File g:\doom\new kingdom\game development [torrents.ru]\ai\programming game ai by example\buckland_aisource\common\fuzzy\fuzzyoperators.h
;	COMDAT ?ClearDOM@FzOR@@UAEXXZ
_TEXT	SEGMENT
_this$ = -4						; size = 4
?ClearDOM@FzOR@@UAEXXZ PROC				; FzOR::ClearDOM, COMDAT
; _this$ = ecx

; 86   :   void ClearDOM(){assert(0 && "<FzOR::ClearDOM>: invalid context");}

	push	ebp
	mov	ebp, esp
	push	ecx
	mov	DWORD PTR [ebp-4], -858993460		; ccccccccH
	mov	DWORD PTR _this$[ebp], ecx
	xor	eax, eax
	jne	SHORT $LN1@ClearDOM
	push	86					; 00000056H
	push	OFFSET ??_C@_1BAK@KLDFNOCP@?$AAg?$AA?3?$AA?2?$AAd?$AAo?$AAo?$AAm?$AA?2?$AAn?$AAe?$AAw?$AA?5?$AAk?$AAi?$AAn?$AAg?$AAd?$AAo?$AAm?$AA?2?$AAg?$AAa?$AAm?$AAe?$AA?5?$AAd?$AAe?$AAv?$AAe?$AAl?$AAo?$AAp@
	push	OFFSET ??_C@_1FC@EJGEACIH@?$AA0?$AA?5?$AA?$CG?$AA?$CG?$AA?5?$AA?$CC?$AA?$DM?$AAF?$AAz?$AAO?$AAR?$AA?3?$AA?3?$AAC?$AAl?$AAe?$AAa?$AAr?$AAD?$AAO?$AAM?$AA?$DO?$AA?3?$AA?5?$AAi?$AAn?$AAv?$AAa?$AAl?$AAi?$AAd?$AA?5@
	call	__wassert
	add	esp, 12					; 0000000cH
$LN1@ClearDOM:
	add	esp, 4
	cmp	ebp, esp
	call	__RTC_CheckEsp
	mov	esp, ebp
	pop	ebp
	ret	0
?ClearDOM@FzOR@@UAEXXZ ENDP				; FzOR::ClearDOM
_TEXT	ENDS
; Function compile flags: /Odtp /RTCsu
; File g:\doom\new kingdom\game development [torrents.ru]\ai\programming game ai by example\buckland_aisource\common\fuzzy\fuzzyoperators.cpp
_TEXT	SEGMENT
tv132 = -112						; size = 4
tv167 = -108						; size = 8
tv91 = -100						; size = 4
tv140 = -96						; size = 4
tv142 = -92						; size = 4
tv138 = -88						; size = 4
tv65 = -84						; size = 4
$T2 = -80						; size = 8
$T3 = -72						; size = 12
$T4 = -57						; size = 1
$T5 = -56						; size = 12
_curTerm$ = -40						; size = 12
_largest$ = -24						; size = 8
_this$ = -16						; size = 4
__$EHRec$ = -12						; size = 12
?GetDOM@FzOR@@UBENXZ PROC				; FzOR::GetDOM
; _this$ = ecx

; 147  : {

	push	ebp
	mov	ebp, esp
	push	-1
	push	__ehhandler$?GetDOM@FzOR@@UBENXZ
	mov	eax, DWORD PTR fs:0
	push	eax
	sub	esp, 100				; 00000064H
	push	esi
	push	edi
	push	ecx
	lea	edi, DWORD PTR [ebp-112]
	mov	ecx, 25					; 00000019H
	mov	eax, -858993460				; ccccccccH
	rep stosd
	pop	ecx
	mov	eax, DWORD PTR ___security_cookie
	xor	eax, ebp
	push	eax
	lea	eax, DWORD PTR __$EHRec$[ebp]
	mov	DWORD PTR fs:0, eax
	mov	DWORD PTR _this$[ebp], ecx

; 148  :   double largest = MinFloat;

	movsd	xmm0, QWORD PTR __real@3810000000000000
	movsd	QWORD PTR _largest$[ebp], xmm0

; 149  : 
; 150  :   std::vector<FuzzyTerm*>::const_iterator curTerm;

	lea	ecx, DWORD PTR _curTerm$[ebp]
	call	??0?$_Vector_const_iterator@V?$_Vector_val@U?$_Simple_types@PAVFuzzyTerm@@@std@@@std@@@std@@QAE@XZ ; std::_Vector_const_iterator<std::_Vector_val<std::_Simple_types<FuzzyTerm *> > >::_Vector_const_iterator<std::_Vector_val<std::_Simple_types<FuzzyTerm *> > >
	mov	DWORD PTR __$EHRec$[ebp+8], 0

; 151  :   for (curTerm = m_Terms.begin(); curTerm != m_Terms.end(); ++curTerm)

	lea	eax, DWORD PTR $T5[ebp]
	push	eax
	mov	ecx, DWORD PTR _this$[ebp]
	add	ecx, 4
	call	?begin@?$vector@PAVFuzzyTerm@@V?$allocator@PAVFuzzyTerm@@@std@@@std@@QBE?AV?$_Vector_const_iterator@V?$_Vector_val@U?$_Simple_types@PAVFuzzyTerm@@@std@@@std@@@2@XZ ; std::vector<FuzzyTerm *,std::allocator<FuzzyTerm *> >::begin
	mov	DWORD PTR tv65[ebp], eax
	mov	ecx, DWORD PTR tv65[ebp]
	mov	DWORD PTR tv138[ebp], ecx
	mov	BYTE PTR __$EHRec$[ebp+8], 1
	mov	edx, DWORD PTR tv138[ebp]
	push	edx
	lea	ecx, DWORD PTR _curTerm$[ebp]
	call	??4?$_Vector_const_iterator@V?$_Vector_val@U?$_Simple_types@PAVFuzzyTerm@@@std@@@std@@@std@@QAEAAV01@$$QAV01@@Z
	mov	BYTE PTR __$EHRec$[ebp+8], 0
	lea	ecx, DWORD PTR $T5[ebp]
	call	??1?$_Vector_const_iterator@V?$_Vector_val@U?$_Simple_types@PAVFuzzyTerm@@@std@@@std@@@std@@QAE@XZ
	jmp	SHORT $LN4@GetDOM
$LN2@GetDOM:
	lea	ecx, DWORD PTR _curTerm$[ebp]
	call	??E?$_Vector_const_iterator@V?$_Vector_val@U?$_Simple_types@PAVFuzzyTerm@@@std@@@std@@@std@@QAEAAV01@XZ ; std::_Vector_const_iterator<std::_Vector_val<std::_Simple_types<FuzzyTerm *> > >::operator++
$LN4@GetDOM:
	lea	eax, DWORD PTR $T3[ebp]
	push	eax
	mov	ecx, DWORD PTR _this$[ebp]
	add	ecx, 4
	call	?end@?$vector@PAVFuzzyTerm@@V?$allocator@PAVFuzzyTerm@@@std@@@std@@QBE?AV?$_Vector_const_iterator@V?$_Vector_val@U?$_Simple_types@PAVFuzzyTerm@@@std@@@std@@@2@XZ ; std::vector<FuzzyTerm *,std::allocator<FuzzyTerm *> >::end
	mov	DWORD PTR tv142[ebp], eax
	mov	ecx, DWORD PTR tv142[ebp]
	mov	DWORD PTR tv140[ebp], ecx
	mov	BYTE PTR __$EHRec$[ebp+8], 2
	mov	edx, DWORD PTR tv140[ebp]
	push	edx
	lea	ecx, DWORD PTR _curTerm$[ebp]
	call	??9?$_Vector_const_iterator@V?$_Vector_val@U?$_Simple_types@PAVFuzzyTerm@@@std@@@std@@@std@@QBE_NABV01@@Z ; std::_Vector_const_iterator<std::_Vector_val<std::_Simple_types<FuzzyTerm *> > >::operator!=
	mov	BYTE PTR $T4[ebp], al
	mov	BYTE PTR __$EHRec$[ebp+8], 0
	lea	ecx, DWORD PTR $T3[ebp]
	call	??1?$_Vector_const_iterator@V?$_Vector_val@U?$_Simple_types@PAVFuzzyTerm@@@std@@@std@@@std@@QAE@XZ
	movzx	eax, BYTE PTR $T4[ebp]
	test	eax, eax
	je	SHORT $LN3@GetDOM

; 152  :   {
; 153  :     if ((*curTerm)->GetDOM() > largest)

	lea	ecx, DWORD PTR _curTerm$[ebp]
	call	??D?$_Vector_const_iterator@V?$_Vector_val@U?$_Simple_types@PAVFuzzyTerm@@@std@@@std@@@std@@QBEABQAVFuzzyTerm@@XZ ; std::_Vector_const_iterator<std::_Vector_val<std::_Simple_types<FuzzyTerm *> > >::operator*
	mov	ecx, DWORD PTR [eax]
	mov	DWORD PTR tv91[ebp], ecx
	mov	edx, DWORD PTR tv91[ebp]
	mov	eax, DWORD PTR [edx]
	mov	esi, esp
	mov	ecx, DWORD PTR tv91[ebp]
	mov	edx, DWORD PTR [eax+8]
	call	edx
	cmp	esi, esp
	call	__RTC_CheckEsp
	fstp	QWORD PTR tv167[ebp]
	movsd	xmm0, QWORD PTR tv167[ebp]
	comisd	xmm0, QWORD PTR _largest$[ebp]
	jbe	SHORT $LN5@GetDOM

; 154  :     {
; 155  :       largest = (*curTerm)->GetDOM();

	lea	ecx, DWORD PTR _curTerm$[ebp]
	call	??D?$_Vector_const_iterator@V?$_Vector_val@U?$_Simple_types@PAVFuzzyTerm@@@std@@@std@@@std@@QBEABQAVFuzzyTerm@@XZ ; std::_Vector_const_iterator<std::_Vector_val<std::_Simple_types<FuzzyTerm *> > >::operator*
	mov	eax, DWORD PTR [eax]
	mov	DWORD PTR tv132[ebp], eax
	mov	ecx, DWORD PTR tv132[ebp]
	mov	edx, DWORD PTR [ecx]
	mov	esi, esp
	mov	ecx, DWORD PTR tv132[ebp]
	mov	eax, DWORD PTR [edx+8]
	call	eax
	cmp	esi, esp
	call	__RTC_CheckEsp
	fstp	QWORD PTR _largest$[ebp]
$LN5@GetDOM:

; 156  :     }
; 157  :   }

	jmp	$LN2@GetDOM
$LN3@GetDOM:

; 158  : 
; 159  :   return largest;

	movsd	xmm0, QWORD PTR _largest$[ebp]
	movsd	QWORD PTR $T2[ebp], xmm0
	mov	DWORD PTR __$EHRec$[ebp+8], -1
	lea	ecx, DWORD PTR _curTerm$[ebp]
	call	??1?$_Vector_const_iterator@V?$_Vector_val@U?$_Simple_types@PAVFuzzyTerm@@@std@@@std@@@std@@QAE@XZ
	fld	QWORD PTR $T2[ebp]

; 160  : }

	push	edx
	mov	ecx, ebp
	push	eax
	lea	edx, DWORD PTR $LN13@GetDOM
	call	@_RTC_CheckStackVars@8
	pop	eax
	pop	edx
	mov	ecx, DWORD PTR __$EHRec$[ebp]
	mov	DWORD PTR fs:0, ecx
	pop	ecx
	pop	edi
	pop	esi
	add	esp, 112				; 00000070H
	cmp	ebp, esp
	call	__RTC_CheckEsp
	mov	esp, ebp
	pop	ebp
	ret	0
	npad	3
$LN13@GetDOM:
	DD	1
	DD	$LN12@GetDOM
$LN12@GetDOM:
	DD	-40					; ffffffd8H
	DD	12					; 0000000cH
	DD	$LN10@GetDOM
$LN10@GetDOM:
	DB	99					; 00000063H
	DB	117					; 00000075H
	DB	114					; 00000072H
	DB	84					; 00000054H
	DB	101					; 00000065H
	DB	114					; 00000072H
	DB	109					; 0000006dH
	DB	0
_TEXT	ENDS
text$x	SEGMENT
__unwindfunclet$?GetDOM@FzOR@@UBENXZ$0:
	lea	ecx, DWORD PTR _curTerm$[ebp]
	jmp	??1?$_Vector_const_iterator@V?$_Vector_val@U?$_Simple_types@PAVFuzzyTerm@@@std@@@std@@@std@@QAE@XZ
__unwindfunclet$?GetDOM@FzOR@@UBENXZ$1:
	lea	ecx, DWORD PTR $T5[ebp]
	jmp	??1?$_Vector_const_iterator@V?$_Vector_val@U?$_Simple_types@PAVFuzzyTerm@@@std@@@std@@@std@@QAE@XZ
__unwindfunclet$?GetDOM@FzOR@@UBENXZ$2:
	lea	ecx, DWORD PTR $T3[ebp]
	jmp	??1?$_Vector_const_iterator@V?$_Vector_val@U?$_Simple_types@PAVFuzzyTerm@@@std@@@std@@@std@@QAE@XZ
__ehhandler$?GetDOM@FzOR@@UBENXZ:
	mov	edx, DWORD PTR [esp+8]
	lea	eax, DWORD PTR [edx+12]
	mov	ecx, DWORD PTR [edx-112]
	xor	ecx, eax
	call	@__security_check_cookie@4
	mov	eax, OFFSET __ehfuncinfo$?GetDOM@FzOR@@UBENXZ
	jmp	___CxxFrameHandler3
text$x	ENDS
?GetDOM@FzOR@@UBENXZ ENDP				; FzOR::GetDOM
; Function compile flags: /Odtp /RTCsu
; File g:\doom\new kingdom\game development [torrents.ru]\ai\programming game ai by example\buckland_aisource\common\fuzzy\fuzzyoperators.h
;	COMDAT ?Clone@FzOR@@UBEPAVFuzzyTerm@@XZ
_TEXT	SEGMENT
tv79 = -28						; size = 4
$T2 = -24						; size = 4
$T3 = -20						; size = 4
_this$ = -16						; size = 4
__$EHRec$ = -12						; size = 12
?Clone@FzOR@@UBEPAVFuzzyTerm@@XZ PROC			; FzOR::Clone, COMDAT
; _this$ = ecx

; 81   :   FuzzyTerm* Clone()const{return new FzOR(*this);}

	push	ebp
	mov	ebp, esp
	push	-1
	push	__ehhandler$?Clone@FzOR@@UBEPAVFuzzyTerm@@XZ
	mov	eax, DWORD PTR fs:0
	push	eax
	sub	esp, 16					; 00000010H
	mov	eax, -858993460				; ccccccccH
	mov	DWORD PTR [ebp-28], eax
	mov	DWORD PTR [ebp-24], eax
	mov	DWORD PTR [ebp-20], eax
	mov	DWORD PTR [ebp-16], eax
	mov	eax, DWORD PTR ___security_cookie
	xor	eax, ebp
	push	eax
	lea	eax, DWORD PTR __$EHRec$[ebp]
	mov	DWORD PTR fs:0, eax
	mov	DWORD PTR _this$[ebp], ecx
	push	20					; 00000014H
	call	??2@YAPAXI@Z				; operator new
	add	esp, 4
	mov	DWORD PTR $T2[ebp], eax
	mov	DWORD PTR __$EHRec$[ebp+8], 0
	cmp	DWORD PTR $T2[ebp], 0
	je	SHORT $LN3@Clone
	mov	eax, DWORD PTR _this$[ebp]
	push	eax
	mov	ecx, DWORD PTR $T2[ebp]
	call	??0FzOR@@QAE@ABV0@@Z			; FzOR::FzOR
	mov	DWORD PTR tv79[ebp], eax
	jmp	SHORT $LN4@Clone
$LN3@Clone:
	mov	DWORD PTR tv79[ebp], 0
$LN4@Clone:
	mov	ecx, DWORD PTR tv79[ebp]
	mov	DWORD PTR $T3[ebp], ecx
	mov	DWORD PTR __$EHRec$[ebp+8], -1
	mov	eax, DWORD PTR $T3[ebp]
	mov	ecx, DWORD PTR __$EHRec$[ebp]
	mov	DWORD PTR fs:0, ecx
	pop	ecx
	add	esp, 28					; 0000001cH
	cmp	ebp, esp
	call	__RTC_CheckEsp
	mov	esp, ebp
	pop	ebp
	ret	0
_TEXT	ENDS
;	COMDAT text$x
text$x	SEGMENT
__unwindfunclet$?Clone@FzOR@@UBEPAVFuzzyTerm@@XZ$0:
	push	20					; 00000014H
	mov	eax, DWORD PTR $T2[ebp]
	push	eax
	call	??3@YAXPAXI@Z				; operator delete
	add	esp, 8
	ret	0
__ehhandler$?Clone@FzOR@@UBEPAVFuzzyTerm@@XZ:
	mov	edx, DWORD PTR [esp+8]
	lea	eax, DWORD PTR [edx+12]
	mov	ecx, DWORD PTR [edx-20]
	xor	ecx, eax
	call	@__security_check_cookie@4
	mov	eax, OFFSET __ehfuncinfo$?Clone@FzOR@@UBEPAVFuzzyTerm@@XZ
	jmp	___CxxFrameHandler3
text$x	ENDS
?Clone@FzOR@@UBEPAVFuzzyTerm@@XZ ENDP			; FzOR::Clone
; Function compile flags: /Odtp /RTCsu
; File g:\doom\new kingdom\game development [torrents.ru]\ai\programming game ai by example\buckland_aisource\common\fuzzy\fuzzyoperators.cpp
_TEXT	SEGMENT
$T2 = -32						; size = 4
$T3 = -28						; size = 4
$T4 = -24						; size = 4
$T5 = -20						; size = 4
_this$ = -16						; size = 4
__$EHRec$ = -12						; size = 12
_op1$ = 8						; size = 4
_op2$ = 12						; size = 4
_op3$ = 16						; size = 4
_op4$ = 20						; size = 4
??0FzOR@@QAE@AAVFuzzyTerm@@000@Z PROC			; FzOR::FzOR
; _this$ = ecx

; 124  : {

	push	ebp
	mov	ebp, esp
	push	-1
	push	__ehhandler$??0FzOR@@QAE@AAVFuzzyTerm@@000@Z
	mov	eax, DWORD PTR fs:0
	push	eax
	sub	esp, 20					; 00000014H
	push	esi
	mov	eax, -858993460				; ccccccccH
	mov	DWORD PTR [ebp-32], eax
	mov	DWORD PTR [ebp-28], eax
	mov	DWORD PTR [ebp-24], eax
	mov	DWORD PTR [ebp-20], eax
	mov	DWORD PTR [ebp-16], eax
	mov	eax, DWORD PTR ___security_cookie
	xor	eax, ebp
	push	eax
	lea	eax, DWORD PTR __$EHRec$[ebp]
	mov	DWORD PTR fs:0, eax
	mov	DWORD PTR _this$[ebp], ecx
	mov	ecx, DWORD PTR _this$[ebp]
	call	??0FuzzyTerm@@QAE@XZ
	mov	DWORD PTR __$EHRec$[ebp+8], 0
	mov	eax, DWORD PTR _this$[ebp]
	mov	DWORD PTR [eax], OFFSET ??_7FzOR@@6B@
	mov	ecx, DWORD PTR _this$[ebp]
	add	ecx, 4
	call	??0?$vector@PAVFuzzyTerm@@V?$allocator@PAVFuzzyTerm@@@std@@@std@@QAE@XZ ; std::vector<FuzzyTerm *,std::allocator<FuzzyTerm *> >::vector<FuzzyTerm *,std::allocator<FuzzyTerm *> >
	mov	BYTE PTR __$EHRec$[ebp+8], 1

; 125  :    m_Terms.push_back(op1.Clone());

	mov	ecx, DWORD PTR _op1$[ebp]
	mov	edx, DWORD PTR [ecx]
	mov	esi, esp
	mov	ecx, DWORD PTR _op1$[ebp]
	mov	eax, DWORD PTR [edx+4]
	call	eax
	cmp	esi, esp
	call	__RTC_CheckEsp
	mov	DWORD PTR $T5[ebp], eax
	lea	ecx, DWORD PTR $T5[ebp]
	push	ecx
	mov	ecx, DWORD PTR _this$[ebp]
	add	ecx, 4
	call	?push_back@?$vector@PAVFuzzyTerm@@V?$allocator@PAVFuzzyTerm@@@std@@@std@@QAEX$$QAPAVFuzzyTerm@@@Z ; std::vector<FuzzyTerm *,std::allocator<FuzzyTerm *> >::push_back

; 126  :    m_Terms.push_back(op2.Clone());

	mov	edx, DWORD PTR _op2$[ebp]
	mov	eax, DWORD PTR [edx]
	mov	esi, esp
	mov	ecx, DWORD PTR _op2$[ebp]
	mov	edx, DWORD PTR [eax+4]
	call	edx
	cmp	esi, esp
	call	__RTC_CheckEsp
	mov	DWORD PTR $T4[ebp], eax
	lea	eax, DWORD PTR $T4[ebp]
	push	eax
	mov	ecx, DWORD PTR _this$[ebp]
	add	ecx, 4
	call	?push_back@?$vector@PAVFuzzyTerm@@V?$allocator@PAVFuzzyTerm@@@std@@@std@@QAEX$$QAPAVFuzzyTerm@@@Z ; std::vector<FuzzyTerm *,std::allocator<FuzzyTerm *> >::push_back

; 127  :    m_Terms.push_back(op3.Clone());

	mov	ecx, DWORD PTR _op3$[ebp]
	mov	edx, DWORD PTR [ecx]
	mov	esi, esp
	mov	ecx, DWORD PTR _op3$[ebp]
	mov	eax, DWORD PTR [edx+4]
	call	eax
	cmp	esi, esp
	call	__RTC_CheckEsp
	mov	DWORD PTR $T3[ebp], eax
	lea	ecx, DWORD PTR $T3[ebp]
	push	ecx
	mov	ecx, DWORD PTR _this$[ebp]
	add	ecx, 4
	call	?push_back@?$vector@PAVFuzzyTerm@@V?$allocator@PAVFuzzyTerm@@@std@@@std@@QAEX$$QAPAVFuzzyTerm@@@Z ; std::vector<FuzzyTerm *,std::allocator<FuzzyTerm *> >::push_back

; 128  :    m_Terms.push_back(op4.Clone());

	mov	edx, DWORD PTR _op4$[ebp]
	mov	eax, DWORD PTR [edx]
	mov	esi, esp
	mov	ecx, DWORD PTR _op4$[ebp]
	mov	edx, DWORD PTR [eax+4]
	call	edx
	cmp	esi, esp
	call	__RTC_CheckEsp
	mov	DWORD PTR $T2[ebp], eax
	lea	eax, DWORD PTR $T2[ebp]
	push	eax
	mov	ecx, DWORD PTR _this$[ebp]
	add	ecx, 4
	call	?push_back@?$vector@PAVFuzzyTerm@@V?$allocator@PAVFuzzyTerm@@@std@@@std@@QAEX$$QAPAVFuzzyTerm@@@Z ; std::vector<FuzzyTerm *,std::allocator<FuzzyTerm *> >::push_back

; 129  : }

	mov	DWORD PTR __$EHRec$[ebp+8], -1
	mov	eax, DWORD PTR _this$[ebp]
	mov	ecx, DWORD PTR __$EHRec$[ebp]
	mov	DWORD PTR fs:0, ecx
	pop	ecx
	pop	esi
	add	esp, 32					; 00000020H
	cmp	ebp, esp
	call	__RTC_CheckEsp
	mov	esp, ebp
	pop	ebp
	ret	16					; 00000010H
_TEXT	ENDS
text$x	SEGMENT
__unwindfunclet$??0FzOR@@QAE@AAVFuzzyTerm@@000@Z$0:
	mov	ecx, DWORD PTR _this$[ebp]
	jmp	??1FuzzyTerm@@UAE@XZ			; FuzzyTerm::~FuzzyTerm
__unwindfunclet$??0FzOR@@QAE@AAVFuzzyTerm@@000@Z$1:
	mov	ecx, DWORD PTR _this$[ebp]
	add	ecx, 4
	jmp	??1?$vector@PAVFuzzyTerm@@V?$allocator@PAVFuzzyTerm@@@std@@@std@@QAE@XZ ; std::vector<FuzzyTerm *,std::allocator<FuzzyTerm *> >::~vector<FuzzyTerm *,std::allocator<FuzzyTerm *> >
__ehhandler$??0FzOR@@QAE@AAVFuzzyTerm@@000@Z:
	mov	edx, DWORD PTR [esp+8]
	lea	eax, DWORD PTR [edx+12]
	mov	ecx, DWORD PTR [edx-28]
	xor	ecx, eax
	call	@__security_check_cookie@4
	mov	eax, OFFSET __ehfuncinfo$??0FzOR@@QAE@AAVFuzzyTerm@@000@Z
	jmp	___CxxFrameHandler3
text$x	ENDS
??0FzOR@@QAE@AAVFuzzyTerm@@000@Z ENDP			; FzOR::FzOR
; Function compile flags: /Odtp /RTCsu
; File g:\doom\new kingdom\game development [torrents.ru]\ai\programming game ai by example\buckland_aisource\common\fuzzy\fuzzyoperators.cpp
_TEXT	SEGMENT
$T2 = -28						; size = 4
$T3 = -24						; size = 4
$T4 = -20						; size = 4
_this$ = -16						; size = 4
__$EHRec$ = -12						; size = 12
_op1$ = 8						; size = 4
_op2$ = 12						; size = 4
_op3$ = 16						; size = 4
??0FzOR@@QAE@AAVFuzzyTerm@@00@Z PROC			; FzOR::FzOR
; _this$ = ecx

; 116  : {

	push	ebp
	mov	ebp, esp
	push	-1
	push	__ehhandler$??0FzOR@@QAE@AAVFuzzyTerm@@00@Z
	mov	eax, DWORD PTR fs:0
	push	eax
	sub	esp, 16					; 00000010H
	push	esi
	mov	eax, -858993460				; ccccccccH
	mov	DWORD PTR [ebp-28], eax
	mov	DWORD PTR [ebp-24], eax
	mov	DWORD PTR [ebp-20], eax
	mov	DWORD PTR [ebp-16], eax
	mov	eax, DWORD PTR ___security_cookie
	xor	eax, ebp
	push	eax
	lea	eax, DWORD PTR __$EHRec$[ebp]
	mov	DWORD PTR fs:0, eax
	mov	DWORD PTR _this$[ebp], ecx
	mov	ecx, DWORD PTR _this$[ebp]
	call	??0FuzzyTerm@@QAE@XZ
	mov	DWORD PTR __$EHRec$[ebp+8], 0
	mov	eax, DWORD PTR _this$[ebp]
	mov	DWORD PTR [eax], OFFSET ??_7FzOR@@6B@
	mov	ecx, DWORD PTR _this$[ebp]
	add	ecx, 4
	call	??0?$vector@PAVFuzzyTerm@@V?$allocator@PAVFuzzyTerm@@@std@@@std@@QAE@XZ ; std::vector<FuzzyTerm *,std::allocator<FuzzyTerm *> >::vector<FuzzyTerm *,std::allocator<FuzzyTerm *> >
	mov	BYTE PTR __$EHRec$[ebp+8], 1

; 117  :    m_Terms.push_back(op1.Clone());

	mov	ecx, DWORD PTR _op1$[ebp]
	mov	edx, DWORD PTR [ecx]
	mov	esi, esp
	mov	ecx, DWORD PTR _op1$[ebp]
	mov	eax, DWORD PTR [edx+4]
	call	eax
	cmp	esi, esp
	call	__RTC_CheckEsp
	mov	DWORD PTR $T4[ebp], eax
	lea	ecx, DWORD PTR $T4[ebp]
	push	ecx
	mov	ecx, DWORD PTR _this$[ebp]
	add	ecx, 4
	call	?push_back@?$vector@PAVFuzzyTerm@@V?$allocator@PAVFuzzyTerm@@@std@@@std@@QAEX$$QAPAVFuzzyTerm@@@Z ; std::vector<FuzzyTerm *,std::allocator<FuzzyTerm *> >::push_back

; 118  :    m_Terms.push_back(op2.Clone());

	mov	edx, DWORD PTR _op2$[ebp]
	mov	eax, DWORD PTR [edx]
	mov	esi, esp
	mov	ecx, DWORD PTR _op2$[ebp]
	mov	edx, DWORD PTR [eax+4]
	call	edx
	cmp	esi, esp
	call	__RTC_CheckEsp
	mov	DWORD PTR $T3[ebp], eax
	lea	eax, DWORD PTR $T3[ebp]
	push	eax
	mov	ecx, DWORD PTR _this$[ebp]
	add	ecx, 4
	call	?push_back@?$vector@PAVFuzzyTerm@@V?$allocator@PAVFuzzyTerm@@@std@@@std@@QAEX$$QAPAVFuzzyTerm@@@Z ; std::vector<FuzzyTerm *,std::allocator<FuzzyTerm *> >::push_back

; 119  :    m_Terms.push_back(op3.Clone());

	mov	ecx, DWORD PTR _op3$[ebp]
	mov	edx, DWORD PTR [ecx]
	mov	esi, esp
	mov	ecx, DWORD PTR _op3$[ebp]
	mov	eax, DWORD PTR [edx+4]
	call	eax
	cmp	esi, esp
	call	__RTC_CheckEsp
	mov	DWORD PTR $T2[ebp], eax
	lea	ecx, DWORD PTR $T2[ebp]
	push	ecx
	mov	ecx, DWORD PTR _this$[ebp]
	add	ecx, 4
	call	?push_back@?$vector@PAVFuzzyTerm@@V?$allocator@PAVFuzzyTerm@@@std@@@std@@QAEX$$QAPAVFuzzyTerm@@@Z ; std::vector<FuzzyTerm *,std::allocator<FuzzyTerm *> >::push_back

; 120  : }

	mov	DWORD PTR __$EHRec$[ebp+8], -1
	mov	eax, DWORD PTR _this$[ebp]
	mov	ecx, DWORD PTR __$EHRec$[ebp]
	mov	DWORD PTR fs:0, ecx
	pop	ecx
	pop	esi
	add	esp, 28					; 0000001cH
	cmp	ebp, esp
	call	__RTC_CheckEsp
	mov	esp, ebp
	pop	ebp
	ret	12					; 0000000cH
_TEXT	ENDS
text$x	SEGMENT
__unwindfunclet$??0FzOR@@QAE@AAVFuzzyTerm@@00@Z$0:
	mov	ecx, DWORD PTR _this$[ebp]
	jmp	??1FuzzyTerm@@UAE@XZ			; FuzzyTerm::~FuzzyTerm
__unwindfunclet$??0FzOR@@QAE@AAVFuzzyTerm@@00@Z$1:
	mov	ecx, DWORD PTR _this$[ebp]
	add	ecx, 4
	jmp	??1?$vector@PAVFuzzyTerm@@V?$allocator@PAVFuzzyTerm@@@std@@@std@@QAE@XZ ; std::vector<FuzzyTerm *,std::allocator<FuzzyTerm *> >::~vector<FuzzyTerm *,std::allocator<FuzzyTerm *> >
__ehhandler$??0FzOR@@QAE@AAVFuzzyTerm@@00@Z:
	mov	edx, DWORD PTR [esp+8]
	lea	eax, DWORD PTR [edx+12]
	mov	ecx, DWORD PTR [edx-24]
	xor	ecx, eax
	call	@__security_check_cookie@4
	mov	eax, OFFSET __ehfuncinfo$??0FzOR@@QAE@AAVFuzzyTerm@@00@Z
	jmp	___CxxFrameHandler3
text$x	ENDS
??0FzOR@@QAE@AAVFuzzyTerm@@00@Z ENDP			; FzOR::FzOR
; Function compile flags: /Odtp /RTCsu
; File g:\doom\new kingdom\game development [torrents.ru]\ai\programming game ai by example\buckland_aisource\common\fuzzy\fuzzyoperators.cpp
_TEXT	SEGMENT
$T2 = -24						; size = 4
$T3 = -20						; size = 4
_this$ = -16						; size = 4
__$EHRec$ = -12						; size = 12
_op1$ = 8						; size = 4
_op2$ = 12						; size = 4
??0FzOR@@QAE@AAVFuzzyTerm@@0@Z PROC			; FzOR::FzOR
; _this$ = ecx

; 109  : {

	push	ebp
	mov	ebp, esp
	push	-1
	push	__ehhandler$??0FzOR@@QAE@AAVFuzzyTerm@@0@Z
	mov	eax, DWORD PTR fs:0
	push	eax
	sub	esp, 12					; 0000000cH
	push	esi
	mov	DWORD PTR [ebp-24], -858993460		; ccccccccH
	mov	DWORD PTR [ebp-20], -858993460		; ccccccccH
	mov	DWORD PTR [ebp-16], -858993460		; ccccccccH
	mov	eax, DWORD PTR ___security_cookie
	xor	eax, ebp
	push	eax
	lea	eax, DWORD PTR __$EHRec$[ebp]
	mov	DWORD PTR fs:0, eax
	mov	DWORD PTR _this$[ebp], ecx
	mov	ecx, DWORD PTR _this$[ebp]
	call	??0FuzzyTerm@@QAE@XZ
	mov	DWORD PTR __$EHRec$[ebp+8], 0
	mov	eax, DWORD PTR _this$[ebp]
	mov	DWORD PTR [eax], OFFSET ??_7FzOR@@6B@
	mov	ecx, DWORD PTR _this$[ebp]
	add	ecx, 4
	call	??0?$vector@PAVFuzzyTerm@@V?$allocator@PAVFuzzyTerm@@@std@@@std@@QAE@XZ ; std::vector<FuzzyTerm *,std::allocator<FuzzyTerm *> >::vector<FuzzyTerm *,std::allocator<FuzzyTerm *> >
	mov	BYTE PTR __$EHRec$[ebp+8], 1

; 110  :    m_Terms.push_back(op1.Clone());

	mov	ecx, DWORD PTR _op1$[ebp]
	mov	edx, DWORD PTR [ecx]
	mov	esi, esp
	mov	ecx, DWORD PTR _op1$[ebp]
	mov	eax, DWORD PTR [edx+4]
	call	eax
	cmp	esi, esp
	call	__RTC_CheckEsp
	mov	DWORD PTR $T3[ebp], eax
	lea	ecx, DWORD PTR $T3[ebp]
	push	ecx
	mov	ecx, DWORD PTR _this$[ebp]
	add	ecx, 4
	call	?push_back@?$vector@PAVFuzzyTerm@@V?$allocator@PAVFuzzyTerm@@@std@@@std@@QAEX$$QAPAVFuzzyTerm@@@Z ; std::vector<FuzzyTerm *,std::allocator<FuzzyTerm *> >::push_back

; 111  :    m_Terms.push_back(op2.Clone());

	mov	edx, DWORD PTR _op2$[ebp]
	mov	eax, DWORD PTR [edx]
	mov	esi, esp
	mov	ecx, DWORD PTR _op2$[ebp]
	mov	edx, DWORD PTR [eax+4]
	call	edx
	cmp	esi, esp
	call	__RTC_CheckEsp
	mov	DWORD PTR $T2[ebp], eax
	lea	eax, DWORD PTR $T2[ebp]
	push	eax
	mov	ecx, DWORD PTR _this$[ebp]
	add	ecx, 4
	call	?push_back@?$vector@PAVFuzzyTerm@@V?$allocator@PAVFuzzyTerm@@@std@@@std@@QAEX$$QAPAVFuzzyTerm@@@Z ; std::vector<FuzzyTerm *,std::allocator<FuzzyTerm *> >::push_back

; 112  : }

	mov	DWORD PTR __$EHRec$[ebp+8], -1
	mov	eax, DWORD PTR _this$[ebp]
	mov	ecx, DWORD PTR __$EHRec$[ebp]
	mov	DWORD PTR fs:0, ecx
	pop	ecx
	pop	esi
	add	esp, 24					; 00000018H
	cmp	ebp, esp
	call	__RTC_CheckEsp
	mov	esp, ebp
	pop	ebp
	ret	8
_TEXT	ENDS
text$x	SEGMENT
__unwindfunclet$??0FzOR@@QAE@AAVFuzzyTerm@@0@Z$0:
	mov	ecx, DWORD PTR _this$[ebp]
	jmp	??1FuzzyTerm@@UAE@XZ			; FuzzyTerm::~FuzzyTerm
__unwindfunclet$??0FzOR@@QAE@AAVFuzzyTerm@@0@Z$1:
	mov	ecx, DWORD PTR _this$[ebp]
	add	ecx, 4
	jmp	??1?$vector@PAVFuzzyTerm@@V?$allocator@PAVFuzzyTerm@@@std@@@std@@QAE@XZ ; std::vector<FuzzyTerm *,std::allocator<FuzzyTerm *> >::~vector<FuzzyTerm *,std::allocator<FuzzyTerm *> >
__ehhandler$??0FzOR@@QAE@AAVFuzzyTerm@@0@Z:
	mov	edx, DWORD PTR [esp+8]
	lea	eax, DWORD PTR [edx+12]
	mov	ecx, DWORD PTR [edx-20]
	xor	ecx, eax
	call	@__security_check_cookie@4
	mov	eax, OFFSET __ehfuncinfo$??0FzOR@@QAE@AAVFuzzyTerm@@0@Z
	jmp	___CxxFrameHandler3
text$x	ENDS
??0FzOR@@QAE@AAVFuzzyTerm@@0@Z ENDP			; FzOR::FzOR
; Function compile flags: /Odtp /RTCsu
; File g:\doom\new kingdom\game development [torrents.ru]\ai\programming game ai by example\buckland_aisource\common\fuzzy\fuzzyoperators.cpp
_TEXT	SEGMENT
tv146 = -88						; size = 4
tv158 = -84						; size = 4
tv160 = -80						; size = 4
tv156 = -76						; size = 4
tv86 = -72						; size = 4
$T2 = -68						; size = 4
$T3 = -64						; size = 12
$T4 = -49						; size = 1
$T5 = -48						; size = 12
_curTerm$ = -32						; size = 12
_this$ = -16						; size = 4
__$EHRec$ = -12						; size = 12
_fa$ = 8						; size = 4
??0FzOR@@QAE@ABV0@@Z PROC				; FzOR::FzOR
; _this$ = ecx

; 99   : {

	push	ebp
	mov	ebp, esp
	push	-1
	push	__ehhandler$??0FzOR@@QAE@ABV0@@Z
	mov	eax, DWORD PTR fs:0
	push	eax
	sub	esp, 76					; 0000004cH
	push	esi
	push	edi
	push	ecx
	lea	edi, DWORD PTR [ebp-88]
	mov	ecx, 19					; 00000013H
	mov	eax, -858993460				; ccccccccH
	rep stosd
	pop	ecx
	mov	eax, DWORD PTR ___security_cookie
	xor	eax, ebp
	push	eax
	lea	eax, DWORD PTR __$EHRec$[ebp]
	mov	DWORD PTR fs:0, eax
	mov	DWORD PTR _this$[ebp], ecx
	mov	ecx, DWORD PTR _this$[ebp]
	call	??0FuzzyTerm@@QAE@XZ
	mov	DWORD PTR __$EHRec$[ebp+8], 0
	mov	eax, DWORD PTR _this$[ebp]
	mov	DWORD PTR [eax], OFFSET ??_7FzOR@@6B@
	mov	ecx, DWORD PTR _this$[ebp]
	add	ecx, 4
	call	??0?$vector@PAVFuzzyTerm@@V?$allocator@PAVFuzzyTerm@@@std@@@std@@QAE@XZ ; std::vector<FuzzyTerm *,std::allocator<FuzzyTerm *> >::vector<FuzzyTerm *,std::allocator<FuzzyTerm *> >
	mov	BYTE PTR __$EHRec$[ebp+8], 1

; 100  :    std::vector<FuzzyTerm*>::const_iterator curTerm;

	lea	ecx, DWORD PTR _curTerm$[ebp]
	call	??0?$_Vector_const_iterator@V?$_Vector_val@U?$_Simple_types@PAVFuzzyTerm@@@std@@@std@@@std@@QAE@XZ ; std::_Vector_const_iterator<std::_Vector_val<std::_Simple_types<FuzzyTerm *> > >::_Vector_const_iterator<std::_Vector_val<std::_Simple_types<FuzzyTerm *> > >
	mov	BYTE PTR __$EHRec$[ebp+8], 2

; 101  :    for (curTerm = fa.m_Terms.begin(); curTerm != fa.m_Terms.end(); ++curTerm)

	lea	ecx, DWORD PTR $T5[ebp]
	push	ecx
	mov	ecx, DWORD PTR _fa$[ebp]
	add	ecx, 4
	call	?begin@?$vector@PAVFuzzyTerm@@V?$allocator@PAVFuzzyTerm@@@std@@@std@@QBE?AV?$_Vector_const_iterator@V?$_Vector_val@U?$_Simple_types@PAVFuzzyTerm@@@std@@@std@@@2@XZ ; std::vector<FuzzyTerm *,std::allocator<FuzzyTerm *> >::begin
	mov	DWORD PTR tv86[ebp], eax
	mov	edx, DWORD PTR tv86[ebp]
	mov	DWORD PTR tv156[ebp], edx
	mov	BYTE PTR __$EHRec$[ebp+8], 3
	mov	eax, DWORD PTR tv156[ebp]
	push	eax
	lea	ecx, DWORD PTR _curTerm$[ebp]
	call	??4?$_Vector_const_iterator@V?$_Vector_val@U?$_Simple_types@PAVFuzzyTerm@@@std@@@std@@@std@@QAEAAV01@$$QAV01@@Z
	mov	BYTE PTR __$EHRec$[ebp+8], 2
	lea	ecx, DWORD PTR $T5[ebp]
	call	??1?$_Vector_const_iterator@V?$_Vector_val@U?$_Simple_types@PAVFuzzyTerm@@@std@@@std@@@std@@QAE@XZ
	jmp	SHORT $LN4@FzOR
$LN2@FzOR:
	lea	ecx, DWORD PTR _curTerm$[ebp]
	call	??E?$_Vector_const_iterator@V?$_Vector_val@U?$_Simple_types@PAVFuzzyTerm@@@std@@@std@@@std@@QAEAAV01@XZ ; std::_Vector_const_iterator<std::_Vector_val<std::_Simple_types<FuzzyTerm *> > >::operator++
$LN4@FzOR:
	lea	ecx, DWORD PTR $T3[ebp]
	push	ecx
	mov	ecx, DWORD PTR _fa$[ebp]
	add	ecx, 4
	call	?end@?$vector@PAVFuzzyTerm@@V?$allocator@PAVFuzzyTerm@@@std@@@std@@QBE?AV?$_Vector_const_iterator@V?$_Vector_val@U?$_Simple_types@PAVFuzzyTerm@@@std@@@std@@@2@XZ ; std::vector<FuzzyTerm *,std::allocator<FuzzyTerm *> >::end
	mov	DWORD PTR tv160[ebp], eax
	mov	edx, DWORD PTR tv160[ebp]
	mov	DWORD PTR tv158[ebp], edx
	mov	BYTE PTR __$EHRec$[ebp+8], 4
	mov	eax, DWORD PTR tv158[ebp]
	push	eax
	lea	ecx, DWORD PTR _curTerm$[ebp]
	call	??9?$_Vector_const_iterator@V?$_Vector_val@U?$_Simple_types@PAVFuzzyTerm@@@std@@@std@@@std@@QBE_NABV01@@Z ; std::_Vector_const_iterator<std::_Vector_val<std::_Simple_types<FuzzyTerm *> > >::operator!=
	mov	BYTE PTR $T4[ebp], al
	mov	BYTE PTR __$EHRec$[ebp+8], 2
	lea	ecx, DWORD PTR $T3[ebp]
	call	??1?$_Vector_const_iterator@V?$_Vector_val@U?$_Simple_types@PAVFuzzyTerm@@@std@@@std@@@std@@QAE@XZ
	movzx	ecx, BYTE PTR $T4[ebp]
	test	ecx, ecx
	je	SHORT $LN3@FzOR

; 102  :    {
; 103  :      m_Terms.push_back((*curTerm)->Clone());

	lea	ecx, DWORD PTR _curTerm$[ebp]
	call	??D?$_Vector_const_iterator@V?$_Vector_val@U?$_Simple_types@PAVFuzzyTerm@@@std@@@std@@@std@@QBEABQAVFuzzyTerm@@XZ ; std::_Vector_const_iterator<std::_Vector_val<std::_Simple_types<FuzzyTerm *> > >::operator*
	mov	edx, DWORD PTR [eax]
	mov	DWORD PTR tv146[ebp], edx
	mov	eax, DWORD PTR tv146[ebp]
	mov	edx, DWORD PTR [eax]
	mov	esi, esp
	mov	ecx, DWORD PTR tv146[ebp]
	mov	eax, DWORD PTR [edx+4]
	call	eax
	cmp	esi, esp
	call	__RTC_CheckEsp
	mov	DWORD PTR $T2[ebp], eax
	lea	ecx, DWORD PTR $T2[ebp]
	push	ecx
	mov	ecx, DWORD PTR _this$[ebp]
	add	ecx, 4
	call	?push_back@?$vector@PAVFuzzyTerm@@V?$allocator@PAVFuzzyTerm@@@std@@@std@@QAEX$$QAPAVFuzzyTerm@@@Z ; std::vector<FuzzyTerm *,std::allocator<FuzzyTerm *> >::push_back

; 104  :    }

	jmp	SHORT $LN2@FzOR
$LN3@FzOR:

; 105  : }

	mov	BYTE PTR __$EHRec$[ebp+8], 1
	lea	ecx, DWORD PTR _curTerm$[ebp]
	call	??1?$_Vector_const_iterator@V?$_Vector_val@U?$_Simple_types@PAVFuzzyTerm@@@std@@@std@@@std@@QAE@XZ
	mov	DWORD PTR __$EHRec$[ebp+8], -1
	mov	eax, DWORD PTR _this$[ebp]
	push	edx
	mov	ecx, ebp
	push	eax
	lea	edx, DWORD PTR $LN14@FzOR
	call	@_RTC_CheckStackVars@8
	pop	eax
	pop	edx
	mov	ecx, DWORD PTR __$EHRec$[ebp]
	mov	DWORD PTR fs:0, ecx
	pop	ecx
	pop	edi
	pop	esi
	add	esp, 88					; 00000058H
	cmp	ebp, esp
	call	__RTC_CheckEsp
	mov	esp, ebp
	pop	ebp
	ret	4
	npad	2
$LN14@FzOR:
	DD	1
	DD	$LN13@FzOR
$LN13@FzOR:
	DD	-32					; ffffffe0H
	DD	12					; 0000000cH
	DD	$LN11@FzOR
$LN11@FzOR:
	DB	99					; 00000063H
	DB	117					; 00000075H
	DB	114					; 00000072H
	DB	84					; 00000054H
	DB	101					; 00000065H
	DB	114					; 00000072H
	DB	109					; 0000006dH
	DB	0
_TEXT	ENDS
text$x	SEGMENT
__unwindfunclet$??0FzOR@@QAE@ABV0@@Z$0:
	mov	ecx, DWORD PTR _this$[ebp]
	jmp	??1FuzzyTerm@@UAE@XZ			; FuzzyTerm::~FuzzyTerm
__unwindfunclet$??0FzOR@@QAE@ABV0@@Z$1:
	mov	ecx, DWORD PTR _this$[ebp]
	add	ecx, 4
	jmp	??1?$vector@PAVFuzzyTerm@@V?$allocator@PAVFuzzyTerm@@@std@@@std@@QAE@XZ ; std::vector<FuzzyTerm *,std::allocator<FuzzyTerm *> >::~vector<FuzzyTerm *,std::allocator<FuzzyTerm *> >
__unwindfunclet$??0FzOR@@QAE@ABV0@@Z$2:
	lea	ecx, DWORD PTR _curTerm$[ebp]
	jmp	??1?$_Vector_const_iterator@V?$_Vector_val@U?$_Simple_types@PAVFuzzyTerm@@@std@@@std@@@std@@QAE@XZ
__unwindfunclet$??0FzOR@@QAE@ABV0@@Z$3:
	lea	ecx, DWORD PTR $T5[ebp]
	jmp	??1?$_Vector_const_iterator@V?$_Vector_val@U?$_Simple_types@PAVFuzzyTerm@@@std@@@std@@@std@@QAE@XZ
__unwindfunclet$??0FzOR@@QAE@ABV0@@Z$4:
	lea	ecx, DWORD PTR $T3[ebp]
	jmp	??1?$_Vector_const_iterator@V?$_Vector_val@U?$_Simple_types@PAVFuzzyTerm@@@std@@@std@@@std@@QAE@XZ
__ehhandler$??0FzOR@@QAE@ABV0@@Z:
	mov	edx, DWORD PTR [esp+8]
	lea	eax, DWORD PTR [edx+12]
	mov	ecx, DWORD PTR [edx-88]
	xor	ecx, eax
	call	@__security_check_cookie@4
	mov	eax, OFFSET __ehfuncinfo$??0FzOR@@QAE@ABV0@@Z
	jmp	___CxxFrameHandler3
text$x	ENDS
??0FzOR@@QAE@ABV0@@Z ENDP				; FzOR::FzOR
; Function compile flags: /Odtp /RTCsu
; File g:\doom\new kingdom\game development [torrents.ru]\ai\programming game ai by example\buckland_aisource\common\fuzzy\fuzzyoperators.cpp
_TEXT	SEGMENT
tv147 = -76						; size = 4
$T2 = -72						; size = 4
$T3 = -68						; size = 4
$T4 = -64						; size = 12
$T5 = -49						; size = 1
$T6 = -48						; size = 12
_curTerm$ = -32						; size = 12
_this$ = -16						; size = 4
__$EHRec$ = -12						; size = 12
??1FzOR@@UAE@XZ PROC					; FzOR::~FzOR
; _this$ = ecx

; 133  : {

	push	ebp
	mov	ebp, esp
	push	-1
	push	__ehhandler$??1FzOR@@UAE@XZ
	mov	eax, DWORD PTR fs:0
	push	eax
	sub	esp, 64					; 00000040H
	push	esi
	push	edi
	push	ecx
	lea	edi, DWORD PTR [ebp-76]
	mov	ecx, 16					; 00000010H
	mov	eax, -858993460				; ccccccccH
	rep stosd
	pop	ecx
	mov	eax, DWORD PTR ___security_cookie
	xor	eax, ebp
	push	eax
	lea	eax, DWORD PTR __$EHRec$[ebp]
	mov	DWORD PTR fs:0, eax
	mov	DWORD PTR _this$[ebp], ecx
	mov	eax, DWORD PTR _this$[ebp]
	mov	DWORD PTR [eax], OFFSET ??_7FzOR@@6B@

; 134  :   std::vector<FuzzyTerm*>::iterator curTerm;

	lea	ecx, DWORD PTR _curTerm$[ebp]
	call	??0?$_Vector_iterator@V?$_Vector_val@U?$_Simple_types@PAVFuzzyTerm@@@std@@@std@@@std@@QAE@XZ ; std::_Vector_iterator<std::_Vector_val<std::_Simple_types<FuzzyTerm *> > >::_Vector_iterator<std::_Vector_val<std::_Simple_types<FuzzyTerm *> > >

; 135  :   for (curTerm = m_Terms.begin(); curTerm != m_Terms.end(); ++curTerm)

	lea	ecx, DWORD PTR $T6[ebp]
	push	ecx
	mov	ecx, DWORD PTR _this$[ebp]
	add	ecx, 4
	call	?begin@?$vector@PAVFuzzyTerm@@V?$allocator@PAVFuzzyTerm@@@std@@@std@@QAE?AV?$_Vector_iterator@V?$_Vector_val@U?$_Simple_types@PAVFuzzyTerm@@@std@@@std@@@2@XZ ; std::vector<FuzzyTerm *,std::allocator<FuzzyTerm *> >::begin
	push	eax
	lea	ecx, DWORD PTR _curTerm$[ebp]
	call	??4?$_Vector_iterator@V?$_Vector_val@U?$_Simple_types@PAVFuzzyTerm@@@std@@@std@@@std@@QAEAAV01@$$QAV01@@Z
	lea	ecx, DWORD PTR $T6[ebp]
	call	??1?$_Vector_iterator@V?$_Vector_val@U?$_Simple_types@PAVFuzzyTerm@@@std@@@std@@@std@@QAE@XZ
	jmp	SHORT $LN4@FzOR
$LN2@FzOR:
	lea	ecx, DWORD PTR _curTerm$[ebp]
	call	??E?$_Vector_iterator@V?$_Vector_val@U?$_Simple_types@PAVFuzzyTerm@@@std@@@std@@@std@@QAEAAV01@XZ ; std::_Vector_iterator<std::_Vector_val<std::_Simple_types<FuzzyTerm *> > >::operator++
$LN4@FzOR:
	lea	edx, DWORD PTR $T4[ebp]
	push	edx
	mov	ecx, DWORD PTR _this$[ebp]
	add	ecx, 4
	call	?end@?$vector@PAVFuzzyTerm@@V?$allocator@PAVFuzzyTerm@@@std@@@std@@QAE?AV?$_Vector_iterator@V?$_Vector_val@U?$_Simple_types@PAVFuzzyTerm@@@std@@@std@@@2@XZ ; std::vector<FuzzyTerm *,std::allocator<FuzzyTerm *> >::end
	push	eax
	lea	ecx, DWORD PTR _curTerm$[ebp]
	call	??9?$_Vector_const_iterator@V?$_Vector_val@U?$_Simple_types@PAVFuzzyTerm@@@std@@@std@@@std@@QBE_NABV01@@Z ; std::_Vector_const_iterator<std::_Vector_val<std::_Simple_types<FuzzyTerm *> > >::operator!=
	mov	BYTE PTR $T5[ebp], al
	lea	ecx, DWORD PTR $T4[ebp]
	call	??1?$_Vector_iterator@V?$_Vector_val@U?$_Simple_types@PAVFuzzyTerm@@@std@@@std@@@std@@QAE@XZ
	movzx	eax, BYTE PTR $T5[ebp]
	test	eax, eax
	je	SHORT $LN3@FzOR

; 136  :   {
; 137  :     delete *curTerm;

	lea	ecx, DWORD PTR _curTerm$[ebp]
	call	??D?$_Vector_iterator@V?$_Vector_val@U?$_Simple_types@PAVFuzzyTerm@@@std@@@std@@@std@@QBEAAPAVFuzzyTerm@@XZ ; std::_Vector_iterator<std::_Vector_val<std::_Simple_types<FuzzyTerm *> > >::operator*
	mov	ecx, DWORD PTR [eax]
	mov	DWORD PTR $T2[ebp], ecx
	mov	edx, DWORD PTR $T2[ebp]
	mov	DWORD PTR $T3[ebp], edx
	cmp	DWORD PTR $T3[ebp], 0
	je	SHORT $LN6@FzOR
	mov	esi, esp
	push	1
	mov	eax, DWORD PTR $T3[ebp]
	mov	edx, DWORD PTR [eax]
	mov	ecx, DWORD PTR $T3[ebp]
	mov	eax, DWORD PTR [edx]
	call	eax
	cmp	esi, esp
	call	__RTC_CheckEsp
	mov	DWORD PTR tv147[ebp], eax
	jmp	SHORT $LN7@FzOR
$LN6@FzOR:
	mov	DWORD PTR tv147[ebp], 0
$LN7@FzOR:

; 138  :   }

	jmp	SHORT $LN2@FzOR
$LN3@FzOR:

; 139  : }

	lea	ecx, DWORD PTR _curTerm$[ebp]
	call	??1?$_Vector_iterator@V?$_Vector_val@U?$_Simple_types@PAVFuzzyTerm@@@std@@@std@@@std@@QAE@XZ
	mov	ecx, DWORD PTR _this$[ebp]
	add	ecx, 4
	call	??1?$vector@PAVFuzzyTerm@@V?$allocator@PAVFuzzyTerm@@@std@@@std@@QAE@XZ ; std::vector<FuzzyTerm *,std::allocator<FuzzyTerm *> >::~vector<FuzzyTerm *,std::allocator<FuzzyTerm *> >
	mov	ecx, DWORD PTR _this$[ebp]
	call	??1FuzzyTerm@@UAE@XZ			; FuzzyTerm::~FuzzyTerm
	push	edx
	mov	ecx, ebp
	push	eax
	lea	edx, DWORD PTR $LN11@FzOR
	call	@_RTC_CheckStackVars@8
	pop	eax
	pop	edx
	mov	ecx, DWORD PTR __$EHRec$[ebp]
	mov	DWORD PTR fs:0, ecx
	pop	ecx
	pop	edi
	pop	esi
	add	esp, 76					; 0000004cH
	cmp	ebp, esp
	call	__RTC_CheckEsp
	mov	esp, ebp
	pop	ebp
	ret	0
	npad	2
$LN11@FzOR:
	DD	1
	DD	$LN10@FzOR
$LN10@FzOR:
	DD	-32					; ffffffe0H
	DD	12					; 0000000cH
	DD	$LN8@FzOR
$LN8@FzOR:
	DB	99					; 00000063H
	DB	117					; 00000075H
	DB	114					; 00000072H
	DB	84					; 00000054H
	DB	101					; 00000065H
	DB	114					; 00000072H
	DB	109					; 0000006dH
	DB	0
_TEXT	ENDS
text$x	SEGMENT
__ehhandler$??1FzOR@@UAE@XZ:
	mov	edx, DWORD PTR [esp+8]
	lea	eax, DWORD PTR [edx+12]
	mov	ecx, DWORD PTR [edx-76]
	xor	ecx, eax
	call	@__security_check_cookie@4
	mov	eax, OFFSET __ehfuncinfo$??1FzOR@@UAE@XZ
	jmp	___CxxFrameHandler3
text$x	ENDS
??1FzOR@@UAE@XZ ENDP					; FzOR::~FzOR
; Function compile flags: /Odtp /RTCsu
;	COMDAT ??_GFzAND@@UAEPAXI@Z
_TEXT	SEGMENT
_this$ = -4						; size = 4
___flags$ = 8						; size = 4
??_GFzAND@@UAEPAXI@Z PROC				; FzAND::`scalar deleting destructor', COMDAT
; _this$ = ecx
	push	ebp
	mov	ebp, esp
	push	ecx
	mov	DWORD PTR [ebp-4], -858993460		; ccccccccH
	mov	DWORD PTR _this$[ebp], ecx
	mov	ecx, DWORD PTR _this$[ebp]
	call	??1FzAND@@UAE@XZ			; FzAND::~FzAND
	mov	eax, DWORD PTR ___flags$[ebp]
	and	eax, 1
	je	SHORT $LN2@scalar
	push	20					; 00000014H
	mov	ecx, DWORD PTR _this$[ebp]
	push	ecx
	call	??3@YAXPAXI@Z				; operator delete
	add	esp, 8
$LN2@scalar:
	mov	eax, DWORD PTR _this$[ebp]
	add	esp, 4
	cmp	ebp, esp
	call	__RTC_CheckEsp
	mov	esp, ebp
	pop	ebp
	ret	4
??_GFzAND@@UAEPAXI@Z ENDP				; FzAND::`scalar deleting destructor'
_TEXT	ENDS
; Function compile flags: /Odtp /RTCsu
; File g:\doom\new kingdom\game development [torrents.ru]\ai\programming game ai by example\buckland_aisource\common\fuzzy\fuzzyoperators.cpp
_TEXT	SEGMENT
tv131 = -84						; size = 4
tv139 = -80						; size = 4
tv140 = -76						; size = 4
tv137 = -72						; size = 4
tv65 = -68						; size = 4
$T2 = -64						; size = 12
$T3 = -49						; size = 1
$T4 = -48						; size = 12
_curTerm$ = -32						; size = 12
_this$ = -16						; size = 4
__$EHRec$ = -12						; size = 12
_val$ = 8						; size = 8
?ORwithDOM@FzAND@@UAEXN@Z PROC				; FzAND::ORwithDOM
; _this$ = ecx

; 75   : {

	push	ebp
	mov	ebp, esp
	push	-1
	push	__ehhandler$?ORwithDOM@FzAND@@UAEXN@Z
	mov	eax, DWORD PTR fs:0
	push	eax
	sub	esp, 72					; 00000048H
	push	esi
	push	edi
	push	ecx
	lea	edi, DWORD PTR [ebp-84]
	mov	ecx, 18					; 00000012H
	mov	eax, -858993460				; ccccccccH
	rep stosd
	pop	ecx
	mov	eax, DWORD PTR ___security_cookie
	xor	eax, ebp
	push	eax
	lea	eax, DWORD PTR __$EHRec$[ebp]
	mov	DWORD PTR fs:0, eax
	mov	DWORD PTR _this$[ebp], ecx

; 76   :   std::vector<FuzzyTerm*>::iterator curTerm;

	lea	ecx, DWORD PTR _curTerm$[ebp]
	call	??0?$_Vector_iterator@V?$_Vector_val@U?$_Simple_types@PAVFuzzyTerm@@@std@@@std@@@std@@QAE@XZ ; std::_Vector_iterator<std::_Vector_val<std::_Simple_types<FuzzyTerm *> > >::_Vector_iterator<std::_Vector_val<std::_Simple_types<FuzzyTerm *> > >
	mov	DWORD PTR __$EHRec$[ebp+8], 0

; 77   :   for (curTerm = m_Terms.begin(); curTerm != m_Terms.end(); ++curTerm)

	lea	eax, DWORD PTR $T4[ebp]
	push	eax
	mov	ecx, DWORD PTR _this$[ebp]
	add	ecx, 4
	call	?begin@?$vector@PAVFuzzyTerm@@V?$allocator@PAVFuzzyTerm@@@std@@@std@@QAE?AV?$_Vector_iterator@V?$_Vector_val@U?$_Simple_types@PAVFuzzyTerm@@@std@@@std@@@2@XZ ; std::vector<FuzzyTerm *,std::allocator<FuzzyTerm *> >::begin
	mov	DWORD PTR tv65[ebp], eax
	mov	ecx, DWORD PTR tv65[ebp]
	mov	DWORD PTR tv137[ebp], ecx
	mov	BYTE PTR __$EHRec$[ebp+8], 1
	mov	edx, DWORD PTR tv137[ebp]
	push	edx
	lea	ecx, DWORD PTR _curTerm$[ebp]
	call	??4?$_Vector_iterator@V?$_Vector_val@U?$_Simple_types@PAVFuzzyTerm@@@std@@@std@@@std@@QAEAAV01@$$QAV01@@Z
	mov	BYTE PTR __$EHRec$[ebp+8], 0
	lea	ecx, DWORD PTR $T4[ebp]
	call	??1?$_Vector_iterator@V?$_Vector_val@U?$_Simple_types@PAVFuzzyTerm@@@std@@@std@@@std@@QAE@XZ
	jmp	SHORT $LN4@ORwithDOM
$LN2@ORwithDOM:
	lea	ecx, DWORD PTR _curTerm$[ebp]
	call	??E?$_Vector_iterator@V?$_Vector_val@U?$_Simple_types@PAVFuzzyTerm@@@std@@@std@@@std@@QAEAAV01@XZ ; std::_Vector_iterator<std::_Vector_val<std::_Simple_types<FuzzyTerm *> > >::operator++
$LN4@ORwithDOM:
	lea	eax, DWORD PTR $T2[ebp]
	push	eax
	mov	ecx, DWORD PTR _this$[ebp]
	add	ecx, 4
	call	?end@?$vector@PAVFuzzyTerm@@V?$allocator@PAVFuzzyTerm@@@std@@@std@@QAE?AV?$_Vector_iterator@V?$_Vector_val@U?$_Simple_types@PAVFuzzyTerm@@@std@@@std@@@2@XZ ; std::vector<FuzzyTerm *,std::allocator<FuzzyTerm *> >::end
	mov	DWORD PTR tv140[ebp], eax
	mov	ecx, DWORD PTR tv140[ebp]
	mov	DWORD PTR tv139[ebp], ecx
	mov	BYTE PTR __$EHRec$[ebp+8], 2
	mov	edx, DWORD PTR tv139[ebp]
	push	edx
	lea	ecx, DWORD PTR _curTerm$[ebp]
	call	??9?$_Vector_const_iterator@V?$_Vector_val@U?$_Simple_types@PAVFuzzyTerm@@@std@@@std@@@std@@QBE_NABV01@@Z ; std::_Vector_const_iterator<std::_Vector_val<std::_Simple_types<FuzzyTerm *> > >::operator!=
	mov	BYTE PTR $T3[ebp], al
	mov	BYTE PTR __$EHRec$[ebp+8], 0
	lea	ecx, DWORD PTR $T2[ebp]
	call	??1?$_Vector_iterator@V?$_Vector_val@U?$_Simple_types@PAVFuzzyTerm@@@std@@@std@@@std@@QAE@XZ
	movzx	eax, BYTE PTR $T3[ebp]
	test	eax, eax
	je	SHORT $LN3@ORwithDOM

; 78   :   {
; 79   :     (*curTerm)->ORwithDOM(val);

	lea	ecx, DWORD PTR _curTerm$[ebp]
	call	??D?$_Vector_iterator@V?$_Vector_val@U?$_Simple_types@PAVFuzzyTerm@@@std@@@std@@@std@@QBEAAPAVFuzzyTerm@@XZ ; std::_Vector_iterator<std::_Vector_val<std::_Simple_types<FuzzyTerm *> > >::operator*
	mov	ecx, DWORD PTR [eax]
	mov	DWORD PTR tv131[ebp], ecx
	mov	esi, esp
	sub	esp, 8
	movsd	xmm0, QWORD PTR _val$[ebp]
	movsd	QWORD PTR [esp], xmm0
	mov	edx, DWORD PTR tv131[ebp]
	mov	eax, DWORD PTR [edx]
	mov	ecx, DWORD PTR tv131[ebp]
	mov	edx, DWORD PTR [eax+16]
	call	edx
	cmp	esi, esp
	call	__RTC_CheckEsp

; 80   :   }

	jmp	SHORT $LN2@ORwithDOM
$LN3@ORwithDOM:

; 81   : }

	mov	DWORD PTR __$EHRec$[ebp+8], -1
	lea	ecx, DWORD PTR _curTerm$[ebp]
	call	??1?$_Vector_iterator@V?$_Vector_val@U?$_Simple_types@PAVFuzzyTerm@@@std@@@std@@@std@@QAE@XZ
	push	edx
	mov	ecx, ebp
	push	eax
	lea	edx, DWORD PTR $LN12@ORwithDOM
	call	@_RTC_CheckStackVars@8
	pop	eax
	pop	edx
	mov	ecx, DWORD PTR __$EHRec$[ebp]
	mov	DWORD PTR fs:0, ecx
	pop	ecx
	pop	edi
	pop	esi
	add	esp, 84					; 00000054H
	cmp	ebp, esp
	call	__RTC_CheckEsp
	mov	esp, ebp
	pop	ebp
	ret	8
	npad	2
$LN12@ORwithDOM:
	DD	1
	DD	$LN11@ORwithDOM
$LN11@ORwithDOM:
	DD	-32					; ffffffe0H
	DD	12					; 0000000cH
	DD	$LN9@ORwithDOM
$LN9@ORwithDOM:
	DB	99					; 00000063H
	DB	117					; 00000075H
	DB	114					; 00000072H
	DB	84					; 00000054H
	DB	101					; 00000065H
	DB	114					; 00000072H
	DB	109					; 0000006dH
	DB	0
_TEXT	ENDS
text$x	SEGMENT
__unwindfunclet$?ORwithDOM@FzAND@@UAEXN@Z$0:
	lea	ecx, DWORD PTR _curTerm$[ebp]
	jmp	??1?$_Vector_iterator@V?$_Vector_val@U?$_Simple_types@PAVFuzzyTerm@@@std@@@std@@@std@@QAE@XZ
__unwindfunclet$?ORwithDOM@FzAND@@UAEXN@Z$1:
	lea	ecx, DWORD PTR $T4[ebp]
	jmp	??1?$_Vector_iterator@V?$_Vector_val@U?$_Simple_types@PAVFuzzyTerm@@@std@@@std@@@std@@QAE@XZ
__unwindfunclet$?ORwithDOM@FzAND@@UAEXN@Z$2:
	lea	ecx, DWORD PTR $T2[ebp]
	jmp	??1?$_Vector_iterator@V?$_Vector_val@U?$_Simple_types@PAVFuzzyTerm@@@std@@@std@@@std@@QAE@XZ
__ehhandler$?ORwithDOM@FzAND@@UAEXN@Z:
	mov	edx, DWORD PTR [esp+8]
	lea	eax, DWORD PTR [edx+12]
	mov	ecx, DWORD PTR [edx-84]
	xor	ecx, eax
	call	@__security_check_cookie@4
	mov	eax, OFFSET __ehfuncinfo$?ORwithDOM@FzAND@@UAEXN@Z
	jmp	___CxxFrameHandler3
text$x	ENDS
?ORwithDOM@FzAND@@UAEXN@Z ENDP				; FzAND::ORwithDOM
; Function compile flags: /Odtp /RTCsu
; File g:\doom\new kingdom\game development [torrents.ru]\ai\programming game ai by example\buckland_aisource\common\fuzzy\fuzzyoperators.cpp
_TEXT	SEGMENT
tv131 = -84						; size = 4
tv138 = -80						; size = 4
tv139 = -76						; size = 4
tv136 = -72						; size = 4
tv65 = -68						; size = 4
$T2 = -64						; size = 12
$T3 = -49						; size = 1
$T4 = -48						; size = 12
_curTerm$ = -32						; size = 12
_this$ = -16						; size = 4
__$EHRec$ = -12						; size = 12
?ClearDOM@FzAND@@UAEXXZ PROC				; FzAND::ClearDOM
; _this$ = ecx

; 85   : {

	push	ebp
	mov	ebp, esp
	push	-1
	push	__ehhandler$?ClearDOM@FzAND@@UAEXXZ
	mov	eax, DWORD PTR fs:0
	push	eax
	sub	esp, 72					; 00000048H
	push	esi
	push	edi
	push	ecx
	lea	edi, DWORD PTR [ebp-84]
	mov	ecx, 18					; 00000012H
	mov	eax, -858993460				; ccccccccH
	rep stosd
	pop	ecx
	mov	eax, DWORD PTR ___security_cookie
	xor	eax, ebp
	push	eax
	lea	eax, DWORD PTR __$EHRec$[ebp]
	mov	DWORD PTR fs:0, eax
	mov	DWORD PTR _this$[ebp], ecx

; 86   :   std::vector<FuzzyTerm*>::iterator curTerm;

	lea	ecx, DWORD PTR _curTerm$[ebp]
	call	??0?$_Vector_iterator@V?$_Vector_val@U?$_Simple_types@PAVFuzzyTerm@@@std@@@std@@@std@@QAE@XZ ; std::_Vector_iterator<std::_Vector_val<std::_Simple_types<FuzzyTerm *> > >::_Vector_iterator<std::_Vector_val<std::_Simple_types<FuzzyTerm *> > >
	mov	DWORD PTR __$EHRec$[ebp+8], 0

; 87   :   for (curTerm = m_Terms.begin(); curTerm != m_Terms.end(); ++curTerm)

	lea	eax, DWORD PTR $T4[ebp]
	push	eax
	mov	ecx, DWORD PTR _this$[ebp]
	add	ecx, 4
	call	?begin@?$vector@PAVFuzzyTerm@@V?$allocator@PAVFuzzyTerm@@@std@@@std@@QAE?AV?$_Vector_iterator@V?$_Vector_val@U?$_Simple_types@PAVFuzzyTerm@@@std@@@std@@@2@XZ ; std::vector<FuzzyTerm *,std::allocator<FuzzyTerm *> >::begin
	mov	DWORD PTR tv65[ebp], eax
	mov	ecx, DWORD PTR tv65[ebp]
	mov	DWORD PTR tv136[ebp], ecx
	mov	BYTE PTR __$EHRec$[ebp+8], 1
	mov	edx, DWORD PTR tv136[ebp]
	push	edx
	lea	ecx, DWORD PTR _curTerm$[ebp]
	call	??4?$_Vector_iterator@V?$_Vector_val@U?$_Simple_types@PAVFuzzyTerm@@@std@@@std@@@std@@QAEAAV01@$$QAV01@@Z
	mov	BYTE PTR __$EHRec$[ebp+8], 0
	lea	ecx, DWORD PTR $T4[ebp]
	call	??1?$_Vector_iterator@V?$_Vector_val@U?$_Simple_types@PAVFuzzyTerm@@@std@@@std@@@std@@QAE@XZ
	jmp	SHORT $LN4@ClearDOM
$LN2@ClearDOM:
	lea	ecx, DWORD PTR _curTerm$[ebp]
	call	??E?$_Vector_iterator@V?$_Vector_val@U?$_Simple_types@PAVFuzzyTerm@@@std@@@std@@@std@@QAEAAV01@XZ ; std::_Vector_iterator<std::_Vector_val<std::_Simple_types<FuzzyTerm *> > >::operator++
$LN4@ClearDOM:
	lea	eax, DWORD PTR $T2[ebp]
	push	eax
	mov	ecx, DWORD PTR _this$[ebp]
	add	ecx, 4
	call	?end@?$vector@PAVFuzzyTerm@@V?$allocator@PAVFuzzyTerm@@@std@@@std@@QAE?AV?$_Vector_iterator@V?$_Vector_val@U?$_Simple_types@PAVFuzzyTerm@@@std@@@std@@@2@XZ ; std::vector<FuzzyTerm *,std::allocator<FuzzyTerm *> >::end
	mov	DWORD PTR tv139[ebp], eax
	mov	ecx, DWORD PTR tv139[ebp]
	mov	DWORD PTR tv138[ebp], ecx
	mov	BYTE PTR __$EHRec$[ebp+8], 2
	mov	edx, DWORD PTR tv138[ebp]
	push	edx
	lea	ecx, DWORD PTR _curTerm$[ebp]
	call	??9?$_Vector_const_iterator@V?$_Vector_val@U?$_Simple_types@PAVFuzzyTerm@@@std@@@std@@@std@@QBE_NABV01@@Z ; std::_Vector_const_iterator<std::_Vector_val<std::_Simple_types<FuzzyTerm *> > >::operator!=
	mov	BYTE PTR $T3[ebp], al
	mov	BYTE PTR __$EHRec$[ebp+8], 0
	lea	ecx, DWORD PTR $T2[ebp]
	call	??1?$_Vector_iterator@V?$_Vector_val@U?$_Simple_types@PAVFuzzyTerm@@@std@@@std@@@std@@QAE@XZ
	movzx	eax, BYTE PTR $T3[ebp]
	test	eax, eax
	je	SHORT $LN3@ClearDOM

; 88   :   {
; 89   :     (*curTerm)->ClearDOM();

	lea	ecx, DWORD PTR _curTerm$[ebp]
	call	??D?$_Vector_iterator@V?$_Vector_val@U?$_Simple_types@PAVFuzzyTerm@@@std@@@std@@@std@@QBEAAPAVFuzzyTerm@@XZ ; std::_Vector_iterator<std::_Vector_val<std::_Simple_types<FuzzyTerm *> > >::operator*
	mov	ecx, DWORD PTR [eax]
	mov	DWORD PTR tv131[ebp], ecx
	mov	edx, DWORD PTR tv131[ebp]
	mov	eax, DWORD PTR [edx]
	mov	esi, esp
	mov	ecx, DWORD PTR tv131[ebp]
	mov	edx, DWORD PTR [eax+12]
	call	edx
	cmp	esi, esp
	call	__RTC_CheckEsp

; 90   :   }

	jmp	SHORT $LN2@ClearDOM
$LN3@ClearDOM:

; 91   : }

	mov	DWORD PTR __$EHRec$[ebp+8], -1
	lea	ecx, DWORD PTR _curTerm$[ebp]
	call	??1?$_Vector_iterator@V?$_Vector_val@U?$_Simple_types@PAVFuzzyTerm@@@std@@@std@@@std@@QAE@XZ
	push	edx
	mov	ecx, ebp
	push	eax
	lea	edx, DWORD PTR $LN12@ClearDOM
	call	@_RTC_CheckStackVars@8
	pop	eax
	pop	edx
	mov	ecx, DWORD PTR __$EHRec$[ebp]
	mov	DWORD PTR fs:0, ecx
	pop	ecx
	pop	edi
	pop	esi
	add	esp, 84					; 00000054H
	cmp	ebp, esp
	call	__RTC_CheckEsp
	mov	esp, ebp
	pop	ebp
	ret	0
	npad	1
$LN12@ClearDOM:
	DD	1
	DD	$LN11@ClearDOM
$LN11@ClearDOM:
	DD	-32					; ffffffe0H
	DD	12					; 0000000cH
	DD	$LN9@ClearDOM
$LN9@ClearDOM:
	DB	99					; 00000063H
	DB	117					; 00000075H
	DB	114					; 00000072H
	DB	84					; 00000054H
	DB	101					; 00000065H
	DB	114					; 00000072H
	DB	109					; 0000006dH
	DB	0
_TEXT	ENDS
text$x	SEGMENT
__unwindfunclet$?ClearDOM@FzAND@@UAEXXZ$0:
	lea	ecx, DWORD PTR _curTerm$[ebp]
	jmp	??1?$_Vector_iterator@V?$_Vector_val@U?$_Simple_types@PAVFuzzyTerm@@@std@@@std@@@std@@QAE@XZ
__unwindfunclet$?ClearDOM@FzAND@@UAEXXZ$1:
	lea	ecx, DWORD PTR $T4[ebp]
	jmp	??1?$_Vector_iterator@V?$_Vector_val@U?$_Simple_types@PAVFuzzyTerm@@@std@@@std@@@std@@QAE@XZ
__unwindfunclet$?ClearDOM@FzAND@@UAEXXZ$2:
	lea	ecx, DWORD PTR $T2[ebp]
	jmp	??1?$_Vector_iterator@V?$_Vector_val@U?$_Simple_types@PAVFuzzyTerm@@@std@@@std@@@std@@QAE@XZ
__ehhandler$?ClearDOM@FzAND@@UAEXXZ:
	mov	edx, DWORD PTR [esp+8]
	lea	eax, DWORD PTR [edx+12]
	mov	ecx, DWORD PTR [edx-84]
	xor	ecx, eax
	call	@__security_check_cookie@4
	mov	eax, OFFSET __ehfuncinfo$?ClearDOM@FzAND@@UAEXXZ
	jmp	___CxxFrameHandler3
text$x	ENDS
?ClearDOM@FzAND@@UAEXXZ ENDP				; FzAND::ClearDOM
; Function compile flags: /Odtp /RTCsu
; File g:\doom\new kingdom\game development [torrents.ru]\ai\programming game ai by example\buckland_aisource\common\fuzzy\fuzzyoperators.cpp
_TEXT	SEGMENT
tv132 = -112						; size = 4
tv167 = -108						; size = 8
tv91 = -100						; size = 4
tv140 = -96						; size = 4
tv142 = -92						; size = 4
tv138 = -88						; size = 4
tv65 = -84						; size = 4
$T2 = -80						; size = 8
$T3 = -72						; size = 12
$T4 = -57						; size = 1
$T5 = -56						; size = 12
_curTerm$ = -40						; size = 12
_smallest$ = -24					; size = 8
_this$ = -16						; size = 4
__$EHRec$ = -12						; size = 12
?GetDOM@FzAND@@UBENXZ PROC				; FzAND::GetDOM
; _this$ = ecx

; 57   : {

	push	ebp
	mov	ebp, esp
	push	-1
	push	__ehhandler$?GetDOM@FzAND@@UBENXZ
	mov	eax, DWORD PTR fs:0
	push	eax
	sub	esp, 100				; 00000064H
	push	esi
	push	edi
	push	ecx
	lea	edi, DWORD PTR [ebp-112]
	mov	ecx, 25					; 00000019H
	mov	eax, -858993460				; ccccccccH
	rep stosd
	pop	ecx
	mov	eax, DWORD PTR ___security_cookie
	xor	eax, ebp
	push	eax
	lea	eax, DWORD PTR __$EHRec$[ebp]
	mov	DWORD PTR fs:0, eax
	mov	DWORD PTR _this$[ebp], ecx

; 58   :   double smallest = MaxDouble;

	movsd	xmm0, QWORD PTR __real@7fefffffffffffff
	movsd	QWORD PTR _smallest$[ebp], xmm0

; 59   : 
; 60   :   std::vector<FuzzyTerm*>::const_iterator curTerm;

	lea	ecx, DWORD PTR _curTerm$[ebp]
	call	??0?$_Vector_const_iterator@V?$_Vector_val@U?$_Simple_types@PAVFuzzyTerm@@@std@@@std@@@std@@QAE@XZ ; std::_Vector_const_iterator<std::_Vector_val<std::_Simple_types<FuzzyTerm *> > >::_Vector_const_iterator<std::_Vector_val<std::_Simple_types<FuzzyTerm *> > >
	mov	DWORD PTR __$EHRec$[ebp+8], 0

; 61   :   for (curTerm = m_Terms.begin(); curTerm != m_Terms.end(); ++curTerm)

	lea	eax, DWORD PTR $T5[ebp]
	push	eax
	mov	ecx, DWORD PTR _this$[ebp]
	add	ecx, 4
	call	?begin@?$vector@PAVFuzzyTerm@@V?$allocator@PAVFuzzyTerm@@@std@@@std@@QBE?AV?$_Vector_const_iterator@V?$_Vector_val@U?$_Simple_types@PAVFuzzyTerm@@@std@@@std@@@2@XZ ; std::vector<FuzzyTerm *,std::allocator<FuzzyTerm *> >::begin
	mov	DWORD PTR tv65[ebp], eax
	mov	ecx, DWORD PTR tv65[ebp]
	mov	DWORD PTR tv138[ebp], ecx
	mov	BYTE PTR __$EHRec$[ebp+8], 1
	mov	edx, DWORD PTR tv138[ebp]
	push	edx
	lea	ecx, DWORD PTR _curTerm$[ebp]
	call	??4?$_Vector_const_iterator@V?$_Vector_val@U?$_Simple_types@PAVFuzzyTerm@@@std@@@std@@@std@@QAEAAV01@$$QAV01@@Z
	mov	BYTE PTR __$EHRec$[ebp+8], 0
	lea	ecx, DWORD PTR $T5[ebp]
	call	??1?$_Vector_const_iterator@V?$_Vector_val@U?$_Simple_types@PAVFuzzyTerm@@@std@@@std@@@std@@QAE@XZ
	jmp	SHORT $LN4@GetDOM
$LN2@GetDOM:
	lea	ecx, DWORD PTR _curTerm$[ebp]
	call	??E?$_Vector_const_iterator@V?$_Vector_val@U?$_Simple_types@PAVFuzzyTerm@@@std@@@std@@@std@@QAEAAV01@XZ ; std::_Vector_const_iterator<std::_Vector_val<std::_Simple_types<FuzzyTerm *> > >::operator++
$LN4@GetDOM:
	lea	eax, DWORD PTR $T3[ebp]
	push	eax
	mov	ecx, DWORD PTR _this$[ebp]
	add	ecx, 4
	call	?end@?$vector@PAVFuzzyTerm@@V?$allocator@PAVFuzzyTerm@@@std@@@std@@QBE?AV?$_Vector_const_iterator@V?$_Vector_val@U?$_Simple_types@PAVFuzzyTerm@@@std@@@std@@@2@XZ ; std::vector<FuzzyTerm *,std::allocator<FuzzyTerm *> >::end
	mov	DWORD PTR tv142[ebp], eax
	mov	ecx, DWORD PTR tv142[ebp]
	mov	DWORD PTR tv140[ebp], ecx
	mov	BYTE PTR __$EHRec$[ebp+8], 2
	mov	edx, DWORD PTR tv140[ebp]
	push	edx
	lea	ecx, DWORD PTR _curTerm$[ebp]
	call	??9?$_Vector_const_iterator@V?$_Vector_val@U?$_Simple_types@PAVFuzzyTerm@@@std@@@std@@@std@@QBE_NABV01@@Z ; std::_Vector_const_iterator<std::_Vector_val<std::_Simple_types<FuzzyTerm *> > >::operator!=
	mov	BYTE PTR $T4[ebp], al
	mov	BYTE PTR __$EHRec$[ebp+8], 0
	lea	ecx, DWORD PTR $T3[ebp]
	call	??1?$_Vector_const_iterator@V?$_Vector_val@U?$_Simple_types@PAVFuzzyTerm@@@std@@@std@@@std@@QAE@XZ
	movzx	eax, BYTE PTR $T4[ebp]
	test	eax, eax
	je	SHORT $LN3@GetDOM

; 62   :   {
; 63   :     if ((*curTerm)->GetDOM() < smallest)

	lea	ecx, DWORD PTR _curTerm$[ebp]
	call	??D?$_Vector_const_iterator@V?$_Vector_val@U?$_Simple_types@PAVFuzzyTerm@@@std@@@std@@@std@@QBEABQAVFuzzyTerm@@XZ ; std::_Vector_const_iterator<std::_Vector_val<std::_Simple_types<FuzzyTerm *> > >::operator*
	mov	ecx, DWORD PTR [eax]
	mov	DWORD PTR tv91[ebp], ecx
	mov	edx, DWORD PTR tv91[ebp]
	mov	eax, DWORD PTR [edx]
	mov	esi, esp
	mov	ecx, DWORD PTR tv91[ebp]
	mov	edx, DWORD PTR [eax+8]
	call	edx
	cmp	esi, esp
	call	__RTC_CheckEsp
	fstp	QWORD PTR tv167[ebp]
	movsd	xmm0, QWORD PTR _smallest$[ebp]
	comisd	xmm0, QWORD PTR tv167[ebp]
	jbe	SHORT $LN5@GetDOM

; 64   :     {
; 65   :       smallest = (*curTerm)->GetDOM();

	lea	ecx, DWORD PTR _curTerm$[ebp]
	call	??D?$_Vector_const_iterator@V?$_Vector_val@U?$_Simple_types@PAVFuzzyTerm@@@std@@@std@@@std@@QBEABQAVFuzzyTerm@@XZ ; std::_Vector_const_iterator<std::_Vector_val<std::_Simple_types<FuzzyTerm *> > >::operator*
	mov	eax, DWORD PTR [eax]
	mov	DWORD PTR tv132[ebp], eax
	mov	ecx, DWORD PTR tv132[ebp]
	mov	edx, DWORD PTR [ecx]
	mov	esi, esp
	mov	ecx, DWORD PTR tv132[ebp]
	mov	eax, DWORD PTR [edx+8]
	call	eax
	cmp	esi, esp
	call	__RTC_CheckEsp
	fstp	QWORD PTR _smallest$[ebp]
$LN5@GetDOM:

; 66   :     }
; 67   :   }

	jmp	$LN2@GetDOM
$LN3@GetDOM:

; 68   : 
; 69   :   return smallest;

	movsd	xmm0, QWORD PTR _smallest$[ebp]
	movsd	QWORD PTR $T2[ebp], xmm0
	mov	DWORD PTR __$EHRec$[ebp+8], -1
	lea	ecx, DWORD PTR _curTerm$[ebp]
	call	??1?$_Vector_const_iterator@V?$_Vector_val@U?$_Simple_types@PAVFuzzyTerm@@@std@@@std@@@std@@QAE@XZ
	fld	QWORD PTR $T2[ebp]

; 70   : }

	push	edx
	mov	ecx, ebp
	push	eax
	lea	edx, DWORD PTR $LN13@GetDOM
	call	@_RTC_CheckStackVars@8
	pop	eax
	pop	edx
	mov	ecx, DWORD PTR __$EHRec$[ebp]
	mov	DWORD PTR fs:0, ecx
	pop	ecx
	pop	edi
	pop	esi
	add	esp, 112				; 00000070H
	cmp	ebp, esp
	call	__RTC_CheckEsp
	mov	esp, ebp
	pop	ebp
	ret	0
	npad	3
$LN13@GetDOM:
	DD	1
	DD	$LN12@GetDOM
$LN12@GetDOM:
	DD	-40					; ffffffd8H
	DD	12					; 0000000cH
	DD	$LN10@GetDOM
$LN10@GetDOM:
	DB	99					; 00000063H
	DB	117					; 00000075H
	DB	114					; 00000072H
	DB	84					; 00000054H
	DB	101					; 00000065H
	DB	114					; 00000072H
	DB	109					; 0000006dH
	DB	0
_TEXT	ENDS
text$x	SEGMENT
__unwindfunclet$?GetDOM@FzAND@@UBENXZ$0:
	lea	ecx, DWORD PTR _curTerm$[ebp]
	jmp	??1?$_Vector_const_iterator@V?$_Vector_val@U?$_Simple_types@PAVFuzzyTerm@@@std@@@std@@@std@@QAE@XZ
__unwindfunclet$?GetDOM@FzAND@@UBENXZ$1:
	lea	ecx, DWORD PTR $T5[ebp]
	jmp	??1?$_Vector_const_iterator@V?$_Vector_val@U?$_Simple_types@PAVFuzzyTerm@@@std@@@std@@@std@@QAE@XZ
__unwindfunclet$?GetDOM@FzAND@@UBENXZ$2:
	lea	ecx, DWORD PTR $T3[ebp]
	jmp	??1?$_Vector_const_iterator@V?$_Vector_val@U?$_Simple_types@PAVFuzzyTerm@@@std@@@std@@@std@@QAE@XZ
__ehhandler$?GetDOM@FzAND@@UBENXZ:
	mov	edx, DWORD PTR [esp+8]
	lea	eax, DWORD PTR [edx+12]
	mov	ecx, DWORD PTR [edx-112]
	xor	ecx, eax
	call	@__security_check_cookie@4
	mov	eax, OFFSET __ehfuncinfo$?GetDOM@FzAND@@UBENXZ
	jmp	___CxxFrameHandler3
text$x	ENDS
?GetDOM@FzAND@@UBENXZ ENDP				; FzAND::GetDOM
; Function compile flags: /Odtp /RTCsu
; File g:\doom\new kingdom\game development [torrents.ru]\ai\programming game ai by example\buckland_aisource\common\fuzzy\fuzzyoperators.h
;	COMDAT ?Clone@FzAND@@UBEPAVFuzzyTerm@@XZ
_TEXT	SEGMENT
tv79 = -28						; size = 4
$T2 = -24						; size = 4
$T3 = -20						; size = 4
_this$ = -16						; size = 4
__$EHRec$ = -12						; size = 12
?Clone@FzAND@@UBEPAVFuzzyTerm@@XZ PROC			; FzAND::Clone, COMDAT
; _this$ = ecx

; 45   :   FuzzyTerm* Clone()const{return new FzAND(*this);}

	push	ebp
	mov	ebp, esp
	push	-1
	push	__ehhandler$?Clone@FzAND@@UBEPAVFuzzyTerm@@XZ
	mov	eax, DWORD PTR fs:0
	push	eax
	sub	esp, 16					; 00000010H
	mov	eax, -858993460				; ccccccccH
	mov	DWORD PTR [ebp-28], eax
	mov	DWORD PTR [ebp-24], eax
	mov	DWORD PTR [ebp-20], eax
	mov	DWORD PTR [ebp-16], eax
	mov	eax, DWORD PTR ___security_cookie
	xor	eax, ebp
	push	eax
	lea	eax, DWORD PTR __$EHRec$[ebp]
	mov	DWORD PTR fs:0, eax
	mov	DWORD PTR _this$[ebp], ecx
	push	20					; 00000014H
	call	??2@YAPAXI@Z				; operator new
	add	esp, 4
	mov	DWORD PTR $T2[ebp], eax
	mov	DWORD PTR __$EHRec$[ebp+8], 0
	cmp	DWORD PTR $T2[ebp], 0
	je	SHORT $LN3@Clone
	mov	eax, DWORD PTR _this$[ebp]
	push	eax
	mov	ecx, DWORD PTR $T2[ebp]
	call	??0FzAND@@QAE@ABV0@@Z			; FzAND::FzAND
	mov	DWORD PTR tv79[ebp], eax
	jmp	SHORT $LN4@Clone
$LN3@Clone:
	mov	DWORD PTR tv79[ebp], 0
$LN4@Clone:
	mov	ecx, DWORD PTR tv79[ebp]
	mov	DWORD PTR $T3[ebp], ecx
	mov	DWORD PTR __$EHRec$[ebp+8], -1
	mov	eax, DWORD PTR $T3[ebp]
	mov	ecx, DWORD PTR __$EHRec$[ebp]
	mov	DWORD PTR fs:0, ecx
	pop	ecx
	add	esp, 28					; 0000001cH
	cmp	ebp, esp
	call	__RTC_CheckEsp
	mov	esp, ebp
	pop	ebp
	ret	0
_TEXT	ENDS
;	COMDAT text$x
text$x	SEGMENT
__unwindfunclet$?Clone@FzAND@@UBEPAVFuzzyTerm@@XZ$0:
	push	20					; 00000014H
	mov	eax, DWORD PTR $T2[ebp]
	push	eax
	call	??3@YAXPAXI@Z				; operator delete
	add	esp, 8
	ret	0
__ehhandler$?Clone@FzAND@@UBEPAVFuzzyTerm@@XZ:
	mov	edx, DWORD PTR [esp+8]
	lea	eax, DWORD PTR [edx+12]
	mov	ecx, DWORD PTR [edx-20]
	xor	ecx, eax
	call	@__security_check_cookie@4
	mov	eax, OFFSET __ehfuncinfo$?Clone@FzAND@@UBEPAVFuzzyTerm@@XZ
	jmp	___CxxFrameHandler3
text$x	ENDS
?Clone@FzAND@@UBEPAVFuzzyTerm@@XZ ENDP			; FzAND::Clone
; Function compile flags: /Odtp /RTCsu
; File g:\doom\new kingdom\game development [torrents.ru]\ai\programming game ai by example\buckland_aisource\common\fuzzy\fuzzyoperators.cpp
_TEXT	SEGMENT
$T2 = -32						; size = 4
$T3 = -28						; size = 4
$T4 = -24						; size = 4
$T5 = -20						; size = 4
_this$ = -16						; size = 4
__$EHRec$ = -12						; size = 12
_op1$ = 8						; size = 4
_op2$ = 12						; size = 4
_op3$ = 16						; size = 4
_op4$ = 20						; size = 4
??0FzAND@@QAE@AAVFuzzyTerm@@000@Z PROC			; FzAND::FzAND
; _this$ = ecx

; 34   : {

	push	ebp
	mov	ebp, esp
	push	-1
	push	__ehhandler$??0FzAND@@QAE@AAVFuzzyTerm@@000@Z
	mov	eax, DWORD PTR fs:0
	push	eax
	sub	esp, 20					; 00000014H
	push	esi
	mov	eax, -858993460				; ccccccccH
	mov	DWORD PTR [ebp-32], eax
	mov	DWORD PTR [ebp-28], eax
	mov	DWORD PTR [ebp-24], eax
	mov	DWORD PTR [ebp-20], eax
	mov	DWORD PTR [ebp-16], eax
	mov	eax, DWORD PTR ___security_cookie
	xor	eax, ebp
	push	eax
	lea	eax, DWORD PTR __$EHRec$[ebp]
	mov	DWORD PTR fs:0, eax
	mov	DWORD PTR _this$[ebp], ecx
	mov	ecx, DWORD PTR _this$[ebp]
	call	??0FuzzyTerm@@QAE@XZ
	mov	DWORD PTR __$EHRec$[ebp+8], 0
	mov	eax, DWORD PTR _this$[ebp]
	mov	DWORD PTR [eax], OFFSET ??_7FzAND@@6B@
	mov	ecx, DWORD PTR _this$[ebp]
	add	ecx, 4
	call	??0?$vector@PAVFuzzyTerm@@V?$allocator@PAVFuzzyTerm@@@std@@@std@@QAE@XZ ; std::vector<FuzzyTerm *,std::allocator<FuzzyTerm *> >::vector<FuzzyTerm *,std::allocator<FuzzyTerm *> >
	mov	BYTE PTR __$EHRec$[ebp+8], 1

; 35   :    m_Terms.push_back(op1.Clone());

	mov	ecx, DWORD PTR _op1$[ebp]
	mov	edx, DWORD PTR [ecx]
	mov	esi, esp
	mov	ecx, DWORD PTR _op1$[ebp]
	mov	eax, DWORD PTR [edx+4]
	call	eax
	cmp	esi, esp
	call	__RTC_CheckEsp
	mov	DWORD PTR $T5[ebp], eax
	lea	ecx, DWORD PTR $T5[ebp]
	push	ecx
	mov	ecx, DWORD PTR _this$[ebp]
	add	ecx, 4
	call	?push_back@?$vector@PAVFuzzyTerm@@V?$allocator@PAVFuzzyTerm@@@std@@@std@@QAEX$$QAPAVFuzzyTerm@@@Z ; std::vector<FuzzyTerm *,std::allocator<FuzzyTerm *> >::push_back

; 36   :    m_Terms.push_back(op2.Clone());

	mov	edx, DWORD PTR _op2$[ebp]
	mov	eax, DWORD PTR [edx]
	mov	esi, esp
	mov	ecx, DWORD PTR _op2$[ebp]
	mov	edx, DWORD PTR [eax+4]
	call	edx
	cmp	esi, esp
	call	__RTC_CheckEsp
	mov	DWORD PTR $T4[ebp], eax
	lea	eax, DWORD PTR $T4[ebp]
	push	eax
	mov	ecx, DWORD PTR _this$[ebp]
	add	ecx, 4
	call	?push_back@?$vector@PAVFuzzyTerm@@V?$allocator@PAVFuzzyTerm@@@std@@@std@@QAEX$$QAPAVFuzzyTerm@@@Z ; std::vector<FuzzyTerm *,std::allocator<FuzzyTerm *> >::push_back

; 37   :    m_Terms.push_back(op3.Clone());

	mov	ecx, DWORD PTR _op3$[ebp]
	mov	edx, DWORD PTR [ecx]
	mov	esi, esp
	mov	ecx, DWORD PTR _op3$[ebp]
	mov	eax, DWORD PTR [edx+4]
	call	eax
	cmp	esi, esp
	call	__RTC_CheckEsp
	mov	DWORD PTR $T3[ebp], eax
	lea	ecx, DWORD PTR $T3[ebp]
	push	ecx
	mov	ecx, DWORD PTR _this$[ebp]
	add	ecx, 4
	call	?push_back@?$vector@PAVFuzzyTerm@@V?$allocator@PAVFuzzyTerm@@@std@@@std@@QAEX$$QAPAVFuzzyTerm@@@Z ; std::vector<FuzzyTerm *,std::allocator<FuzzyTerm *> >::push_back

; 38   :    m_Terms.push_back(op4.Clone());

	mov	edx, DWORD PTR _op4$[ebp]
	mov	eax, DWORD PTR [edx]
	mov	esi, esp
	mov	ecx, DWORD PTR _op4$[ebp]
	mov	edx, DWORD PTR [eax+4]
	call	edx
	cmp	esi, esp
	call	__RTC_CheckEsp
	mov	DWORD PTR $T2[ebp], eax
	lea	eax, DWORD PTR $T2[ebp]
	push	eax
	mov	ecx, DWORD PTR _this$[ebp]
	add	ecx, 4
	call	?push_back@?$vector@PAVFuzzyTerm@@V?$allocator@PAVFuzzyTerm@@@std@@@std@@QAEX$$QAPAVFuzzyTerm@@@Z ; std::vector<FuzzyTerm *,std::allocator<FuzzyTerm *> >::push_back

; 39   : }

	mov	DWORD PTR __$EHRec$[ebp+8], -1
	mov	eax, DWORD PTR _this$[ebp]
	mov	ecx, DWORD PTR __$EHRec$[ebp]
	mov	DWORD PTR fs:0, ecx
	pop	ecx
	pop	esi
	add	esp, 32					; 00000020H
	cmp	ebp, esp
	call	__RTC_CheckEsp
	mov	esp, ebp
	pop	ebp
	ret	16					; 00000010H
_TEXT	ENDS
text$x	SEGMENT
__unwindfunclet$??0FzAND@@QAE@AAVFuzzyTerm@@000@Z$0:
	mov	ecx, DWORD PTR _this$[ebp]
	jmp	??1FuzzyTerm@@UAE@XZ			; FuzzyTerm::~FuzzyTerm
__unwindfunclet$??0FzAND@@QAE@AAVFuzzyTerm@@000@Z$1:
	mov	ecx, DWORD PTR _this$[ebp]
	add	ecx, 4
	jmp	??1?$vector@PAVFuzzyTerm@@V?$allocator@PAVFuzzyTerm@@@std@@@std@@QAE@XZ ; std::vector<FuzzyTerm *,std::allocator<FuzzyTerm *> >::~vector<FuzzyTerm *,std::allocator<FuzzyTerm *> >
__ehhandler$??0FzAND@@QAE@AAVFuzzyTerm@@000@Z:
	mov	edx, DWORD PTR [esp+8]
	lea	eax, DWORD PTR [edx+12]
	mov	ecx, DWORD PTR [edx-28]
	xor	ecx, eax
	call	@__security_check_cookie@4
	mov	eax, OFFSET __ehfuncinfo$??0FzAND@@QAE@AAVFuzzyTerm@@000@Z
	jmp	___CxxFrameHandler3
text$x	ENDS
??0FzAND@@QAE@AAVFuzzyTerm@@000@Z ENDP			; FzAND::FzAND
; Function compile flags: /Odtp /RTCsu
; File g:\doom\new kingdom\game development [torrents.ru]\ai\programming game ai by example\buckland_aisource\common\fuzzy\fuzzyoperators.cpp
_TEXT	SEGMENT
$T2 = -28						; size = 4
$T3 = -24						; size = 4
$T4 = -20						; size = 4
_this$ = -16						; size = 4
__$EHRec$ = -12						; size = 12
_op1$ = 8						; size = 4
_op2$ = 12						; size = 4
_op3$ = 16						; size = 4
??0FzAND@@QAE@AAVFuzzyTerm@@00@Z PROC			; FzAND::FzAND
; _this$ = ecx

; 26   : {

	push	ebp
	mov	ebp, esp
	push	-1
	push	__ehhandler$??0FzAND@@QAE@AAVFuzzyTerm@@00@Z
	mov	eax, DWORD PTR fs:0
	push	eax
	sub	esp, 16					; 00000010H
	push	esi
	mov	eax, -858993460				; ccccccccH
	mov	DWORD PTR [ebp-28], eax
	mov	DWORD PTR [ebp-24], eax
	mov	DWORD PTR [ebp-20], eax
	mov	DWORD PTR [ebp-16], eax
	mov	eax, DWORD PTR ___security_cookie
	xor	eax, ebp
	push	eax
	lea	eax, DWORD PTR __$EHRec$[ebp]
	mov	DWORD PTR fs:0, eax
	mov	DWORD PTR _this$[ebp], ecx
	mov	ecx, DWORD PTR _this$[ebp]
	call	??0FuzzyTerm@@QAE@XZ
	mov	DWORD PTR __$EHRec$[ebp+8], 0
	mov	eax, DWORD PTR _this$[ebp]
	mov	DWORD PTR [eax], OFFSET ??_7FzAND@@6B@
	mov	ecx, DWORD PTR _this$[ebp]
	add	ecx, 4
	call	??0?$vector@PAVFuzzyTerm@@V?$allocator@PAVFuzzyTerm@@@std@@@std@@QAE@XZ ; std::vector<FuzzyTerm *,std::allocator<FuzzyTerm *> >::vector<FuzzyTerm *,std::allocator<FuzzyTerm *> >
	mov	BYTE PTR __$EHRec$[ebp+8], 1

; 27   :    m_Terms.push_back(op1.Clone());

	mov	ecx, DWORD PTR _op1$[ebp]
	mov	edx, DWORD PTR [ecx]
	mov	esi, esp
	mov	ecx, DWORD PTR _op1$[ebp]
	mov	eax, DWORD PTR [edx+4]
	call	eax
	cmp	esi, esp
	call	__RTC_CheckEsp
	mov	DWORD PTR $T4[ebp], eax
	lea	ecx, DWORD PTR $T4[ebp]
	push	ecx
	mov	ecx, DWORD PTR _this$[ebp]
	add	ecx, 4
	call	?push_back@?$vector@PAVFuzzyTerm@@V?$allocator@PAVFuzzyTerm@@@std@@@std@@QAEX$$QAPAVFuzzyTerm@@@Z ; std::vector<FuzzyTerm *,std::allocator<FuzzyTerm *> >::push_back

; 28   :    m_Terms.push_back(op2.Clone());

	mov	edx, DWORD PTR _op2$[ebp]
	mov	eax, DWORD PTR [edx]
	mov	esi, esp
	mov	ecx, DWORD PTR _op2$[ebp]
	mov	edx, DWORD PTR [eax+4]
	call	edx
	cmp	esi, esp
	call	__RTC_CheckEsp
	mov	DWORD PTR $T3[ebp], eax
	lea	eax, DWORD PTR $T3[ebp]
	push	eax
	mov	ecx, DWORD PTR _this$[ebp]
	add	ecx, 4
	call	?push_back@?$vector@PAVFuzzyTerm@@V?$allocator@PAVFuzzyTerm@@@std@@@std@@QAEX$$QAPAVFuzzyTerm@@@Z ; std::vector<FuzzyTerm *,std::allocator<FuzzyTerm *> >::push_back

; 29   :    m_Terms.push_back(op3.Clone());

	mov	ecx, DWORD PTR _op3$[ebp]
	mov	edx, DWORD PTR [ecx]
	mov	esi, esp
	mov	ecx, DWORD PTR _op3$[ebp]
	mov	eax, DWORD PTR [edx+4]
	call	eax
	cmp	esi, esp
	call	__RTC_CheckEsp
	mov	DWORD PTR $T2[ebp], eax
	lea	ecx, DWORD PTR $T2[ebp]
	push	ecx
	mov	ecx, DWORD PTR _this$[ebp]
	add	ecx, 4
	call	?push_back@?$vector@PAVFuzzyTerm@@V?$allocator@PAVFuzzyTerm@@@std@@@std@@QAEX$$QAPAVFuzzyTerm@@@Z ; std::vector<FuzzyTerm *,std::allocator<FuzzyTerm *> >::push_back

; 30   : }

	mov	DWORD PTR __$EHRec$[ebp+8], -1
	mov	eax, DWORD PTR _this$[ebp]
	mov	ecx, DWORD PTR __$EHRec$[ebp]
	mov	DWORD PTR fs:0, ecx
	pop	ecx
	pop	esi
	add	esp, 28					; 0000001cH
	cmp	ebp, esp
	call	__RTC_CheckEsp
	mov	esp, ebp
	pop	ebp
	ret	12					; 0000000cH
_TEXT	ENDS
text$x	SEGMENT
__unwindfunclet$??0FzAND@@QAE@AAVFuzzyTerm@@00@Z$0:
	mov	ecx, DWORD PTR _this$[ebp]
	jmp	??1FuzzyTerm@@UAE@XZ			; FuzzyTerm::~FuzzyTerm
__unwindfunclet$??0FzAND@@QAE@AAVFuzzyTerm@@00@Z$1:
	mov	ecx, DWORD PTR _this$[ebp]
	add	ecx, 4
	jmp	??1?$vector@PAVFuzzyTerm@@V?$allocator@PAVFuzzyTerm@@@std@@@std@@QAE@XZ ; std::vector<FuzzyTerm *,std::allocator<FuzzyTerm *> >::~vector<FuzzyTerm *,std::allocator<FuzzyTerm *> >
__ehhandler$??0FzAND@@QAE@AAVFuzzyTerm@@00@Z:
	mov	edx, DWORD PTR [esp+8]
	lea	eax, DWORD PTR [edx+12]
	mov	ecx, DWORD PTR [edx-24]
	xor	ecx, eax
	call	@__security_check_cookie@4
	mov	eax, OFFSET __ehfuncinfo$??0FzAND@@QAE@AAVFuzzyTerm@@00@Z
	jmp	___CxxFrameHandler3
text$x	ENDS
??0FzAND@@QAE@AAVFuzzyTerm@@00@Z ENDP			; FzAND::FzAND
; Function compile flags: /Odtp /RTCsu
; File g:\doom\new kingdom\game development [torrents.ru]\ai\programming game ai by example\buckland_aisource\common\fuzzy\fuzzyoperators.cpp
_TEXT	SEGMENT
$T2 = -24						; size = 4
$T3 = -20						; size = 4
_this$ = -16						; size = 4
__$EHRec$ = -12						; size = 12
_op1$ = 8						; size = 4
_op2$ = 12						; size = 4
??0FzAND@@QAE@AAVFuzzyTerm@@0@Z PROC			; FzAND::FzAND
; _this$ = ecx

; 19   : {

	push	ebp
	mov	ebp, esp
	push	-1
	push	__ehhandler$??0FzAND@@QAE@AAVFuzzyTerm@@0@Z
	mov	eax, DWORD PTR fs:0
	push	eax
	sub	esp, 12					; 0000000cH
	push	esi
	mov	DWORD PTR [ebp-24], -858993460		; ccccccccH
	mov	DWORD PTR [ebp-20], -858993460		; ccccccccH
	mov	DWORD PTR [ebp-16], -858993460		; ccccccccH
	mov	eax, DWORD PTR ___security_cookie
	xor	eax, ebp
	push	eax
	lea	eax, DWORD PTR __$EHRec$[ebp]
	mov	DWORD PTR fs:0, eax
	mov	DWORD PTR _this$[ebp], ecx
	mov	ecx, DWORD PTR _this$[ebp]
	call	??0FuzzyTerm@@QAE@XZ
	mov	DWORD PTR __$EHRec$[ebp+8], 0
	mov	eax, DWORD PTR _this$[ebp]
	mov	DWORD PTR [eax], OFFSET ??_7FzAND@@6B@
	mov	ecx, DWORD PTR _this$[ebp]
	add	ecx, 4
	call	??0?$vector@PAVFuzzyTerm@@V?$allocator@PAVFuzzyTerm@@@std@@@std@@QAE@XZ ; std::vector<FuzzyTerm *,std::allocator<FuzzyTerm *> >::vector<FuzzyTerm *,std::allocator<FuzzyTerm *> >
	mov	BYTE PTR __$EHRec$[ebp+8], 1

; 20   :    m_Terms.push_back(op1.Clone());

	mov	ecx, DWORD PTR _op1$[ebp]
	mov	edx, DWORD PTR [ecx]
	mov	esi, esp
	mov	ecx, DWORD PTR _op1$[ebp]
	mov	eax, DWORD PTR [edx+4]
	call	eax
	cmp	esi, esp
	call	__RTC_CheckEsp
	mov	DWORD PTR $T3[ebp], eax
	lea	ecx, DWORD PTR $T3[ebp]
	push	ecx
	mov	ecx, DWORD PTR _this$[ebp]
	add	ecx, 4
	call	?push_back@?$vector@PAVFuzzyTerm@@V?$allocator@PAVFuzzyTerm@@@std@@@std@@QAEX$$QAPAVFuzzyTerm@@@Z ; std::vector<FuzzyTerm *,std::allocator<FuzzyTerm *> >::push_back

; 21   :    m_Terms.push_back(op2.Clone());

	mov	edx, DWORD PTR _op2$[ebp]
	mov	eax, DWORD PTR [edx]
	mov	esi, esp
	mov	ecx, DWORD PTR _op2$[ebp]
	mov	edx, DWORD PTR [eax+4]
	call	edx
	cmp	esi, esp
	call	__RTC_CheckEsp
	mov	DWORD PTR $T2[ebp], eax
	lea	eax, DWORD PTR $T2[ebp]
	push	eax
	mov	ecx, DWORD PTR _this$[ebp]
	add	ecx, 4
	call	?push_back@?$vector@PAVFuzzyTerm@@V?$allocator@PAVFuzzyTerm@@@std@@@std@@QAEX$$QAPAVFuzzyTerm@@@Z ; std::vector<FuzzyTerm *,std::allocator<FuzzyTerm *> >::push_back

; 22   : }

	mov	DWORD PTR __$EHRec$[ebp+8], -1
	mov	eax, DWORD PTR _this$[ebp]
	mov	ecx, DWORD PTR __$EHRec$[ebp]
	mov	DWORD PTR fs:0, ecx
	pop	ecx
	pop	esi
	add	esp, 24					; 00000018H
	cmp	ebp, esp
	call	__RTC_CheckEsp
	mov	esp, ebp
	pop	ebp
	ret	8
_TEXT	ENDS
text$x	SEGMENT
__unwindfunclet$??0FzAND@@QAE@AAVFuzzyTerm@@0@Z$0:
	mov	ecx, DWORD PTR _this$[ebp]
	jmp	??1FuzzyTerm@@UAE@XZ			; FuzzyTerm::~FuzzyTerm
__unwindfunclet$??0FzAND@@QAE@AAVFuzzyTerm@@0@Z$1:
	mov	ecx, DWORD PTR _this$[ebp]
	add	ecx, 4
	jmp	??1?$vector@PAVFuzzyTerm@@V?$allocator@PAVFuzzyTerm@@@std@@@std@@QAE@XZ ; std::vector<FuzzyTerm *,std::allocator<FuzzyTerm *> >::~vector<FuzzyTerm *,std::allocator<FuzzyTerm *> >
__ehhandler$??0FzAND@@QAE@AAVFuzzyTerm@@0@Z:
	mov	edx, DWORD PTR [esp+8]
	lea	eax, DWORD PTR [edx+12]
	mov	ecx, DWORD PTR [edx-20]
	xor	ecx, eax
	call	@__security_check_cookie@4
	mov	eax, OFFSET __ehfuncinfo$??0FzAND@@QAE@AAVFuzzyTerm@@0@Z
	jmp	___CxxFrameHandler3
text$x	ENDS
??0FzAND@@QAE@AAVFuzzyTerm@@0@Z ENDP			; FzAND::FzAND
; Function compile flags: /Odtp /RTCsu
; File g:\doom\new kingdom\game development [torrents.ru]\ai\programming game ai by example\buckland_aisource\common\fuzzy\fuzzyoperators.cpp
_TEXT	SEGMENT
tv146 = -88						; size = 4
tv158 = -84						; size = 4
tv160 = -80						; size = 4
tv156 = -76						; size = 4
tv86 = -72						; size = 4
$T2 = -68						; size = 4
$T3 = -64						; size = 12
$T4 = -49						; size = 1
$T5 = -48						; size = 12
_curTerm$ = -32						; size = 12
_this$ = -16						; size = 4
__$EHRec$ = -12						; size = 12
_fa$ = 8						; size = 4
??0FzAND@@QAE@ABV0@@Z PROC				; FzAND::FzAND
; _this$ = ecx

; 9    : {

	push	ebp
	mov	ebp, esp
	push	-1
	push	__ehhandler$??0FzAND@@QAE@ABV0@@Z
	mov	eax, DWORD PTR fs:0
	push	eax
	sub	esp, 76					; 0000004cH
	push	esi
	push	edi
	push	ecx
	lea	edi, DWORD PTR [ebp-88]
	mov	ecx, 19					; 00000013H
	mov	eax, -858993460				; ccccccccH
	rep stosd
	pop	ecx
	mov	eax, DWORD PTR ___security_cookie
	xor	eax, ebp
	push	eax
	lea	eax, DWORD PTR __$EHRec$[ebp]
	mov	DWORD PTR fs:0, eax
	mov	DWORD PTR _this$[ebp], ecx
	mov	ecx, DWORD PTR _this$[ebp]
	call	??0FuzzyTerm@@QAE@XZ
	mov	DWORD PTR __$EHRec$[ebp+8], 0
	mov	eax, DWORD PTR _this$[ebp]
	mov	DWORD PTR [eax], OFFSET ??_7FzAND@@6B@
	mov	ecx, DWORD PTR _this$[ebp]
	add	ecx, 4
	call	??0?$vector@PAVFuzzyTerm@@V?$allocator@PAVFuzzyTerm@@@std@@@std@@QAE@XZ ; std::vector<FuzzyTerm *,std::allocator<FuzzyTerm *> >::vector<FuzzyTerm *,std::allocator<FuzzyTerm *> >
	mov	BYTE PTR __$EHRec$[ebp+8], 1

; 10   :    std::vector<FuzzyTerm*>::const_iterator curTerm;

	lea	ecx, DWORD PTR _curTerm$[ebp]
	call	??0?$_Vector_const_iterator@V?$_Vector_val@U?$_Simple_types@PAVFuzzyTerm@@@std@@@std@@@std@@QAE@XZ ; std::_Vector_const_iterator<std::_Vector_val<std::_Simple_types<FuzzyTerm *> > >::_Vector_const_iterator<std::_Vector_val<std::_Simple_types<FuzzyTerm *> > >
	mov	BYTE PTR __$EHRec$[ebp+8], 2

; 11   :    for (curTerm = fa.m_Terms.begin(); curTerm != fa.m_Terms.end(); ++curTerm)

	lea	ecx, DWORD PTR $T5[ebp]
	push	ecx
	mov	ecx, DWORD PTR _fa$[ebp]
	add	ecx, 4
	call	?begin@?$vector@PAVFuzzyTerm@@V?$allocator@PAVFuzzyTerm@@@std@@@std@@QBE?AV?$_Vector_const_iterator@V?$_Vector_val@U?$_Simple_types@PAVFuzzyTerm@@@std@@@std@@@2@XZ ; std::vector<FuzzyTerm *,std::allocator<FuzzyTerm *> >::begin
	mov	DWORD PTR tv86[ebp], eax
	mov	edx, DWORD PTR tv86[ebp]
	mov	DWORD PTR tv156[ebp], edx
	mov	BYTE PTR __$EHRec$[ebp+8], 3
	mov	eax, DWORD PTR tv156[ebp]
	push	eax
	lea	ecx, DWORD PTR _curTerm$[ebp]
	call	??4?$_Vector_const_iterator@V?$_Vector_val@U?$_Simple_types@PAVFuzzyTerm@@@std@@@std@@@std@@QAEAAV01@$$QAV01@@Z
	mov	BYTE PTR __$EHRec$[ebp+8], 2
	lea	ecx, DWORD PTR $T5[ebp]
	call	??1?$_Vector_const_iterator@V?$_Vector_val@U?$_Simple_types@PAVFuzzyTerm@@@std@@@std@@@std@@QAE@XZ
	jmp	SHORT $LN4@FzAND
$LN2@FzAND:
	lea	ecx, DWORD PTR _curTerm$[ebp]
	call	??E?$_Vector_const_iterator@V?$_Vector_val@U?$_Simple_types@PAVFuzzyTerm@@@std@@@std@@@std@@QAEAAV01@XZ ; std::_Vector_const_iterator<std::_Vector_val<std::_Simple_types<FuzzyTerm *> > >::operator++
$LN4@FzAND:
	lea	ecx, DWORD PTR $T3[ebp]
	push	ecx
	mov	ecx, DWORD PTR _fa$[ebp]
	add	ecx, 4
	call	?end@?$vector@PAVFuzzyTerm@@V?$allocator@PAVFuzzyTerm@@@std@@@std@@QBE?AV?$_Vector_const_iterator@V?$_Vector_val@U?$_Simple_types@PAVFuzzyTerm@@@std@@@std@@@2@XZ ; std::vector<FuzzyTerm *,std::allocator<FuzzyTerm *> >::end
	mov	DWORD PTR tv160[ebp], eax
	mov	edx, DWORD PTR tv160[ebp]
	mov	DWORD PTR tv158[ebp], edx
	mov	BYTE PTR __$EHRec$[ebp+8], 4
	mov	eax, DWORD PTR tv158[ebp]
	push	eax
	lea	ecx, DWORD PTR _curTerm$[ebp]
	call	??9?$_Vector_const_iterator@V?$_Vector_val@U?$_Simple_types@PAVFuzzyTerm@@@std@@@std@@@std@@QBE_NABV01@@Z ; std::_Vector_const_iterator<std::_Vector_val<std::_Simple_types<FuzzyTerm *> > >::operator!=
	mov	BYTE PTR $T4[ebp], al
	mov	BYTE PTR __$EHRec$[ebp+8], 2
	lea	ecx, DWORD PTR $T3[ebp]
	call	??1?$_Vector_const_iterator@V?$_Vector_val@U?$_Simple_types@PAVFuzzyTerm@@@std@@@std@@@std@@QAE@XZ
	movzx	ecx, BYTE PTR $T4[ebp]
	test	ecx, ecx
	je	SHORT $LN3@FzAND

; 12   :    {
; 13   :      m_Terms.push_back((*curTerm)->Clone());

	lea	ecx, DWORD PTR _curTerm$[ebp]
	call	??D?$_Vector_const_iterator@V?$_Vector_val@U?$_Simple_types@PAVFuzzyTerm@@@std@@@std@@@std@@QBEABQAVFuzzyTerm@@XZ ; std::_Vector_const_iterator<std::_Vector_val<std::_Simple_types<FuzzyTerm *> > >::operator*
	mov	edx, DWORD PTR [eax]
	mov	DWORD PTR tv146[ebp], edx
	mov	eax, DWORD PTR tv146[ebp]
	mov	edx, DWORD PTR [eax]
	mov	esi, esp
	mov	ecx, DWORD PTR tv146[ebp]
	mov	eax, DWORD PTR [edx+4]
	call	eax
	cmp	esi, esp
	call	__RTC_CheckEsp
	mov	DWORD PTR $T2[ebp], eax
	lea	ecx, DWORD PTR $T2[ebp]
	push	ecx
	mov	ecx, DWORD PTR _this$[ebp]
	add	ecx, 4
	call	?push_back@?$vector@PAVFuzzyTerm@@V?$allocator@PAVFuzzyTerm@@@std@@@std@@QAEX$$QAPAVFuzzyTerm@@@Z ; std::vector<FuzzyTerm *,std::allocator<FuzzyTerm *> >::push_back

; 14   :    }

	jmp	SHORT $LN2@FzAND
$LN3@FzAND:

; 15   : }

	mov	BYTE PTR __$EHRec$[ebp+8], 1
	lea	ecx, DWORD PTR _curTerm$[ebp]
	call	??1?$_Vector_const_iterator@V?$_Vector_val@U?$_Simple_types@PAVFuzzyTerm@@@std@@@std@@@std@@QAE@XZ
	mov	DWORD PTR __$EHRec$[ebp+8], -1
	mov	eax, DWORD PTR _this$[ebp]
	push	edx
	mov	ecx, ebp
	push	eax
	lea	edx, DWORD PTR $LN14@FzAND
	call	@_RTC_CheckStackVars@8
	pop	eax
	pop	edx
	mov	ecx, DWORD PTR __$EHRec$[ebp]
	mov	DWORD PTR fs:0, ecx
	pop	ecx
	pop	edi
	pop	esi
	add	esp, 88					; 00000058H
	cmp	ebp, esp
	call	__RTC_CheckEsp
	mov	esp, ebp
	pop	ebp
	ret	4
	npad	2
$LN14@FzAND:
	DD	1
	DD	$LN13@FzAND
$LN13@FzAND:
	DD	-32					; ffffffe0H
	DD	12					; 0000000cH
	DD	$LN11@FzAND
$LN11@FzAND:
	DB	99					; 00000063H
	DB	117					; 00000075H
	DB	114					; 00000072H
	DB	84					; 00000054H
	DB	101					; 00000065H
	DB	114					; 00000072H
	DB	109					; 0000006dH
	DB	0
_TEXT	ENDS
text$x	SEGMENT
__unwindfunclet$??0FzAND@@QAE@ABV0@@Z$0:
	mov	ecx, DWORD PTR _this$[ebp]
	jmp	??1FuzzyTerm@@UAE@XZ			; FuzzyTerm::~FuzzyTerm
__unwindfunclet$??0FzAND@@QAE@ABV0@@Z$1:
	mov	ecx, DWORD PTR _this$[ebp]
	add	ecx, 4
	jmp	??1?$vector@PAVFuzzyTerm@@V?$allocator@PAVFuzzyTerm@@@std@@@std@@QAE@XZ ; std::vector<FuzzyTerm *,std::allocator<FuzzyTerm *> >::~vector<FuzzyTerm *,std::allocator<FuzzyTerm *> >
__unwindfunclet$??0FzAND@@QAE@ABV0@@Z$2:
	lea	ecx, DWORD PTR _curTerm$[ebp]
	jmp	??1?$_Vector_const_iterator@V?$_Vector_val@U?$_Simple_types@PAVFuzzyTerm@@@std@@@std@@@std@@QAE@XZ
__unwindfunclet$??0FzAND@@QAE@ABV0@@Z$3:
	lea	ecx, DWORD PTR $T5[ebp]
	jmp	??1?$_Vector_const_iterator@V?$_Vector_val@U?$_Simple_types@PAVFuzzyTerm@@@std@@@std@@@std@@QAE@XZ
__unwindfunclet$??0FzAND@@QAE@ABV0@@Z$4:
	lea	ecx, DWORD PTR $T3[ebp]
	jmp	??1?$_Vector_const_iterator@V?$_Vector_val@U?$_Simple_types@PAVFuzzyTerm@@@std@@@std@@@std@@QAE@XZ
__ehhandler$??0FzAND@@QAE@ABV0@@Z:
	mov	edx, DWORD PTR [esp+8]
	lea	eax, DWORD PTR [edx+12]
	mov	ecx, DWORD PTR [edx-88]
	xor	ecx, eax
	call	@__security_check_cookie@4
	mov	eax, OFFSET __ehfuncinfo$??0FzAND@@QAE@ABV0@@Z
	jmp	___CxxFrameHandler3
text$x	ENDS
??0FzAND@@QAE@ABV0@@Z ENDP				; FzAND::FzAND
; Function compile flags: /Odtp /RTCsu
; File g:\doom\new kingdom\game development [torrents.ru]\ai\programming game ai by example\buckland_aisource\common\fuzzy\fuzzyoperators.cpp
_TEXT	SEGMENT
tv147 = -76						; size = 4
$T2 = -72						; size = 4
$T3 = -68						; size = 4
$T4 = -64						; size = 12
$T5 = -49						; size = 1
$T6 = -48						; size = 12
_curTerm$ = -32						; size = 12
_this$ = -16						; size = 4
__$EHRec$ = -12						; size = 12
??1FzAND@@UAE@XZ PROC					; FzAND::~FzAND
; _this$ = ecx

; 43   : {

	push	ebp
	mov	ebp, esp
	push	-1
	push	__ehhandler$??1FzAND@@UAE@XZ
	mov	eax, DWORD PTR fs:0
	push	eax
	sub	esp, 64					; 00000040H
	push	esi
	push	edi
	push	ecx
	lea	edi, DWORD PTR [ebp-76]
	mov	ecx, 16					; 00000010H
	mov	eax, -858993460				; ccccccccH
	rep stosd
	pop	ecx
	mov	eax, DWORD PTR ___security_cookie
	xor	eax, ebp
	push	eax
	lea	eax, DWORD PTR __$EHRec$[ebp]
	mov	DWORD PTR fs:0, eax
	mov	DWORD PTR _this$[ebp], ecx
	mov	eax, DWORD PTR _this$[ebp]
	mov	DWORD PTR [eax], OFFSET ??_7FzAND@@6B@

; 44   :   std::vector<FuzzyTerm*>::iterator curTerm;

	lea	ecx, DWORD PTR _curTerm$[ebp]
	call	??0?$_Vector_iterator@V?$_Vector_val@U?$_Simple_types@PAVFuzzyTerm@@@std@@@std@@@std@@QAE@XZ ; std::_Vector_iterator<std::_Vector_val<std::_Simple_types<FuzzyTerm *> > >::_Vector_iterator<std::_Vector_val<std::_Simple_types<FuzzyTerm *> > >

; 45   :   for (curTerm = m_Terms.begin(); curTerm != m_Terms.end(); ++curTerm)

	lea	ecx, DWORD PTR $T6[ebp]
	push	ecx
	mov	ecx, DWORD PTR _this$[ebp]
	add	ecx, 4
	call	?begin@?$vector@PAVFuzzyTerm@@V?$allocator@PAVFuzzyTerm@@@std@@@std@@QAE?AV?$_Vector_iterator@V?$_Vector_val@U?$_Simple_types@PAVFuzzyTerm@@@std@@@std@@@2@XZ ; std::vector<FuzzyTerm *,std::allocator<FuzzyTerm *> >::begin
	push	eax
	lea	ecx, DWORD PTR _curTerm$[ebp]
	call	??4?$_Vector_iterator@V?$_Vector_val@U?$_Simple_types@PAVFuzzyTerm@@@std@@@std@@@std@@QAEAAV01@$$QAV01@@Z
	lea	ecx, DWORD PTR $T6[ebp]
	call	??1?$_Vector_iterator@V?$_Vector_val@U?$_Simple_types@PAVFuzzyTerm@@@std@@@std@@@std@@QAE@XZ
	jmp	SHORT $LN4@FzAND
$LN2@FzAND:
	lea	ecx, DWORD PTR _curTerm$[ebp]
	call	??E?$_Vector_iterator@V?$_Vector_val@U?$_Simple_types@PAVFuzzyTerm@@@std@@@std@@@std@@QAEAAV01@XZ ; std::_Vector_iterator<std::_Vector_val<std::_Simple_types<FuzzyTerm *> > >::operator++
$LN4@FzAND:
	lea	edx, DWORD PTR $T4[ebp]
	push	edx
	mov	ecx, DWORD PTR _this$[ebp]
	add	ecx, 4
	call	?end@?$vector@PAVFuzzyTerm@@V?$allocator@PAVFuzzyTerm@@@std@@@std@@QAE?AV?$_Vector_iterator@V?$_Vector_val@U?$_Simple_types@PAVFuzzyTerm@@@std@@@std@@@2@XZ ; std::vector<FuzzyTerm *,std::allocator<FuzzyTerm *> >::end
	push	eax
	lea	ecx, DWORD PTR _curTerm$[ebp]
	call	??9?$_Vector_const_iterator@V?$_Vector_val@U?$_Simple_types@PAVFuzzyTerm@@@std@@@std@@@std@@QBE_NABV01@@Z ; std::_Vector_const_iterator<std::_Vector_val<std::_Simple_types<FuzzyTerm *> > >::operator!=
	mov	BYTE PTR $T5[ebp], al
	lea	ecx, DWORD PTR $T4[ebp]
	call	??1?$_Vector_iterator@V?$_Vector_val@U?$_Simple_types@PAVFuzzyTerm@@@std@@@std@@@std@@QAE@XZ
	movzx	eax, BYTE PTR $T5[ebp]
	test	eax, eax
	je	SHORT $LN3@FzAND

; 46   :   {
; 47   :     delete *curTerm;

	lea	ecx, DWORD PTR _curTerm$[ebp]
	call	??D?$_Vector_iterator@V?$_Vector_val@U?$_Simple_types@PAVFuzzyTerm@@@std@@@std@@@std@@QBEAAPAVFuzzyTerm@@XZ ; std::_Vector_iterator<std::_Vector_val<std::_Simple_types<FuzzyTerm *> > >::operator*
	mov	ecx, DWORD PTR [eax]
	mov	DWORD PTR $T2[ebp], ecx
	mov	edx, DWORD PTR $T2[ebp]
	mov	DWORD PTR $T3[ebp], edx
	cmp	DWORD PTR $T3[ebp], 0
	je	SHORT $LN6@FzAND
	mov	esi, esp
	push	1
	mov	eax, DWORD PTR $T3[ebp]
	mov	edx, DWORD PTR [eax]
	mov	ecx, DWORD PTR $T3[ebp]
	mov	eax, DWORD PTR [edx]
	call	eax
	cmp	esi, esp
	call	__RTC_CheckEsp
	mov	DWORD PTR tv147[ebp], eax
	jmp	SHORT $LN7@FzAND
$LN6@FzAND:
	mov	DWORD PTR tv147[ebp], 0
$LN7@FzAND:

; 48   :   }

	jmp	SHORT $LN2@FzAND
$LN3@FzAND:

; 49   : }

	lea	ecx, DWORD PTR _curTerm$[ebp]
	call	??1?$_Vector_iterator@V?$_Vector_val@U?$_Simple_types@PAVFuzzyTerm@@@std@@@std@@@std@@QAE@XZ
	mov	ecx, DWORD PTR _this$[ebp]
	add	ecx, 4
	call	??1?$vector@PAVFuzzyTerm@@V?$allocator@PAVFuzzyTerm@@@std@@@std@@QAE@XZ ; std::vector<FuzzyTerm *,std::allocator<FuzzyTerm *> >::~vector<FuzzyTerm *,std::allocator<FuzzyTerm *> >
	mov	ecx, DWORD PTR _this$[ebp]
	call	??1FuzzyTerm@@UAE@XZ			; FuzzyTerm::~FuzzyTerm
	push	edx
	mov	ecx, ebp
	push	eax
	lea	edx, DWORD PTR $LN11@FzAND
	call	@_RTC_CheckStackVars@8
	pop	eax
	pop	edx
	mov	ecx, DWORD PTR __$EHRec$[ebp]
	mov	DWORD PTR fs:0, ecx
	pop	ecx
	pop	edi
	pop	esi
	add	esp, 76					; 0000004cH
	cmp	ebp, esp
	call	__RTC_CheckEsp
	mov	esp, ebp
	pop	ebp
	ret	0
	npad	2
$LN11@FzAND:
	DD	1
	DD	$LN10@FzAND
$LN10@FzAND:
	DD	-32					; ffffffe0H
	DD	12					; 0000000cH
	DD	$LN8@FzAND
$LN8@FzAND:
	DB	99					; 00000063H
	DB	117					; 00000075H
	DB	114					; 00000072H
	DB	84					; 00000054H
	DB	101					; 00000065H
	DB	114					; 00000072H
	DB	109					; 0000006dH
	DB	0
_TEXT	ENDS
text$x	SEGMENT
__ehhandler$??1FzAND@@UAE@XZ:
	mov	edx, DWORD PTR [esp+8]
	lea	eax, DWORD PTR [edx+12]
	mov	ecx, DWORD PTR [edx-76]
	xor	ecx, eax
	call	@__security_check_cookie@4
	mov	eax, OFFSET __ehfuncinfo$??1FzAND@@UAE@XZ
	jmp	___CxxFrameHandler3
text$x	ENDS
??1FzAND@@UAE@XZ ENDP					; FzAND::~FzAND
; Function compile flags: /Odtp /RTCsu
; File c:\program files (x86)\microsoft visual studio 14.0\vc\include\vector
;	COMDAT ?_Orphan_range@?$vector@PAVFuzzyTerm@@V?$allocator@PAVFuzzyTerm@@@std@@@std@@IBEXPAPAVFuzzyTerm@@0@Z
_TEXT	SEGMENT
__Pnext$ = -32						; size = 4
__Lock$ = -24						; size = 4
_this$ = -16						; size = 4
__$EHRec$ = -12						; size = 12
__First$ = 8						; size = 4
__Last$ = 12						; size = 4
?_Orphan_range@?$vector@PAVFuzzyTerm@@V?$allocator@PAVFuzzyTerm@@@std@@@std@@IBEXPAPAVFuzzyTerm@@0@Z PROC ; std::vector<FuzzyTerm *,std::allocator<FuzzyTerm *> >::_Orphan_range, COMDAT
; _this$ = ecx

; 1775 : 		{	// orphan iterators within specified (inclusive) range

	push	ebp
	mov	ebp, esp
	push	-1
	push	__ehhandler$?_Orphan_range@?$vector@PAVFuzzyTerm@@V?$allocator@PAVFuzzyTerm@@@std@@@std@@IBEXPAPAVFuzzyTerm@@0@Z
	mov	eax, DWORD PTR fs:0
	push	eax
	sub	esp, 20					; 00000014H
	mov	eax, -858993460				; ccccccccH
	mov	DWORD PTR [ebp-32], eax
	mov	DWORD PTR [ebp-28], eax
	mov	DWORD PTR [ebp-24], eax
	mov	DWORD PTR [ebp-20], eax
	mov	DWORD PTR [ebp-16], eax
	mov	eax, DWORD PTR ___security_cookie
	xor	eax, ebp
	push	eax
	lea	eax, DWORD PTR __$EHRec$[ebp]
	mov	DWORD PTR fs:0, eax
	mov	DWORD PTR _this$[ebp], ecx

; 1776 : 		_Lockit _Lock(_LOCK_DEBUG);

	push	3
	lea	ecx, DWORD PTR __Lock$[ebp]
	call	??0_Lockit@std@@QAE@H@Z			; std::_Lockit::_Lockit
	mov	DWORD PTR __$EHRec$[ebp+8], 0

; 1777 : 		const_iterator **_Pnext = (const_iterator **)this->_Getpfirst();

	mov	ecx, DWORD PTR _this$[ebp]
	call	?_Getpfirst@?$_Vector_alloc@U?$_Vec_base_types@PAVFuzzyTerm@@V?$allocator@PAVFuzzyTerm@@@std@@@std@@@std@@QBEPAPAU_Iterator_base12@2@XZ ; std::_Vector_alloc<std::_Vec_base_types<FuzzyTerm *,std::allocator<FuzzyTerm *> > >::_Getpfirst
	mov	DWORD PTR __Pnext$[ebp], eax

; 1778 : 		if (_Pnext != 0)

	cmp	DWORD PTR __Pnext$[ebp], 0
	je	SHORT $LN4@Orphan_ran
$LN2@Orphan_ran:

; 1779 : 			{	// test an iterator
; 1780 : 			while (*_Pnext != 0)

	mov	eax, DWORD PTR __Pnext$[ebp]
	cmp	DWORD PTR [eax], 0
	je	SHORT $LN4@Orphan_ran

; 1781 : 				if ((*_Pnext)->_Ptr < _First || _Last < (*_Pnext)->_Ptr)

	mov	ecx, DWORD PTR __Pnext$[ebp]
	mov	edx, DWORD PTR [ecx]
	mov	eax, DWORD PTR [edx+8]
	cmp	eax, DWORD PTR __First$[ebp]
	jb	SHORT $LN7@Orphan_ran
	mov	ecx, DWORD PTR __Pnext$[ebp]
	mov	edx, DWORD PTR [ecx]
	mov	eax, DWORD PTR __Last$[ebp]
	cmp	eax, DWORD PTR [edx+8]
	jae	SHORT $LN5@Orphan_ran
$LN7@Orphan_ran:

; 1782 : 					_Pnext = (const_iterator **)(*_Pnext)->_Getpnext();

	mov	ecx, DWORD PTR __Pnext$[ebp]
	mov	ecx, DWORD PTR [ecx]
	call	?_Getpnext@_Iterator_base12@std@@QAEPAPAU12@XZ ; std::_Iterator_base12::_Getpnext
	mov	DWORD PTR __Pnext$[ebp], eax

; 1783 : 				else

	jmp	SHORT $LN6@Orphan_ran
$LN5@Orphan_ran:

; 1784 : 					{	// orphan the iterator
; 1785 : 					(*_Pnext)->_Clrcont();

	mov	edx, DWORD PTR __Pnext$[ebp]
	mov	ecx, DWORD PTR [edx]
	call	?_Clrcont@_Iterator_base12@std@@QAEXXZ	; std::_Iterator_base12::_Clrcont

; 1786 : 					*_Pnext = *(const_iterator **)(*_Pnext)->_Getpnext();

	mov	eax, DWORD PTR __Pnext$[ebp]
	mov	ecx, DWORD PTR [eax]
	call	?_Getpnext@_Iterator_base12@std@@QAEPAPAU12@XZ ; std::_Iterator_base12::_Getpnext
	mov	ecx, DWORD PTR __Pnext$[ebp]
	mov	edx, DWORD PTR [eax]
	mov	DWORD PTR [ecx], edx
$LN6@Orphan_ran:

; 1787 : 					}

	jmp	SHORT $LN2@Orphan_ran
$LN4@Orphan_ran:

; 1788 : 			}
; 1789 : 		}

	mov	DWORD PTR __$EHRec$[ebp+8], -1
	lea	ecx, DWORD PTR __Lock$[ebp]
	call	??1_Lockit@std@@QAE@XZ			; std::_Lockit::~_Lockit
	push	edx
	mov	ecx, ebp
	push	eax
	lea	edx, DWORD PTR $LN13@Orphan_ran
	call	@_RTC_CheckStackVars@8
	pop	eax
	pop	edx
	mov	ecx, DWORD PTR __$EHRec$[ebp]
	mov	DWORD PTR fs:0, ecx
	pop	ecx
	add	esp, 32					; 00000020H
	cmp	ebp, esp
	call	__RTC_CheckEsp
	mov	esp, ebp
	pop	ebp
	ret	8
	npad	1
$LN13@Orphan_ran:
	DD	1
	DD	$LN12@Orphan_ran
$LN12@Orphan_ran:
	DD	-24					; ffffffe8H
	DD	4
	DD	$LN10@Orphan_ran
$LN10@Orphan_ran:
	DB	95					; 0000005fH
	DB	76					; 0000004cH
	DB	111					; 0000006fH
	DB	99					; 00000063H
	DB	107					; 0000006bH
	DB	0
_TEXT	ENDS
;	COMDAT text$x
text$x	SEGMENT
__unwindfunclet$?_Orphan_range@?$vector@PAVFuzzyTerm@@V?$allocator@PAVFuzzyTerm@@@std@@@std@@IBEXPAPAVFuzzyTerm@@0@Z$0:
	lea	ecx, DWORD PTR __Lock$[ebp]
	jmp	??1_Lockit@std@@QAE@XZ			; std::_Lockit::~_Lockit
__ehhandler$?_Orphan_range@?$vector@PAVFuzzyTerm@@V?$allocator@PAVFuzzyTerm@@@std@@@std@@IBEXPAPAVFuzzyTerm@@0@Z:
	mov	edx, DWORD PTR [esp+8]
	lea	eax, DWORD PTR [edx+12]
	mov	ecx, DWORD PTR [edx-24]
	xor	ecx, eax
	call	@__security_check_cookie@4
	mov	eax, OFFSET __ehfuncinfo$?_Orphan_range@?$vector@PAVFuzzyTerm@@V?$allocator@PAVFuzzyTerm@@@std@@@std@@IBEXPAPAVFuzzyTerm@@0@Z
	jmp	___CxxFrameHandler3
text$x	ENDS
?_Orphan_range@?$vector@PAVFuzzyTerm@@V?$allocator@PAVFuzzyTerm@@@std@@@std@@IBEXPAPAVFuzzyTerm@@0@Z ENDP ; std::vector<FuzzyTerm *,std::allocator<FuzzyTerm *> >::_Orphan_range
; Function compile flags: /Odtp /RTCsu
; File c:\program files (x86)\microsoft visual studio 14.0\vc\include\vector
;	COMDAT ?_Xlen@?$vector@PAVFuzzyTerm@@V?$allocator@PAVFuzzyTerm@@@std@@@std@@IBEXXZ
_TEXT	SEGMENT
_this$ = -4						; size = 4
?_Xlen@?$vector@PAVFuzzyTerm@@V?$allocator@PAVFuzzyTerm@@@std@@@std@@IBEXXZ PROC ; std::vector<FuzzyTerm *,std::allocator<FuzzyTerm *> >::_Xlen, COMDAT
; _this$ = ecx

; 1764 : 		{	// report a length_error

	push	ebp
	mov	ebp, esp
	push	ecx
	mov	DWORD PTR [ebp-4], -858993460		; ccccccccH
	mov	DWORD PTR _this$[ebp], ecx

; 1765 : 		_Xlength_error("vector<T> too long");

	push	OFFSET ??_C@_0BD@OLBABOEK@vector?$DMT?$DO?5too?5long?$AA@
	call	?_Xlength_error@std@@YAXPBD@Z		; std::_Xlength_error
$LN2@Xlen:

; 1766 : 		}

	add	esp, 4
	cmp	ebp, esp
	call	__RTC_CheckEsp
	mov	esp, ebp
	pop	ebp
	ret	0
?_Xlen@?$vector@PAVFuzzyTerm@@V?$allocator@PAVFuzzyTerm@@@std@@@std@@IBEXXZ ENDP ; std::vector<FuzzyTerm *,std::allocator<FuzzyTerm *> >::_Xlen
_TEXT	ENDS
; Function compile flags: /Odtp /RTCsu
; File c:\program files (x86)\microsoft visual studio 14.0\vc\include\vector
;	COMDAT ?_Tidy@?$vector@PAVFuzzyTerm@@V?$allocator@PAVFuzzyTerm@@@std@@@std@@IAEXXZ
_TEXT	SEGMENT
_this$ = -4						; size = 4
?_Tidy@?$vector@PAVFuzzyTerm@@V?$allocator@PAVFuzzyTerm@@@std@@@std@@IAEXXZ PROC ; std::vector<FuzzyTerm *,std::allocator<FuzzyTerm *> >::_Tidy, COMDAT
; _this$ = ecx

; 1636 : 		{	// free all storage

	push	ebp
	mov	ebp, esp
	push	ecx
	push	esi
	mov	DWORD PTR [ebp-4], -858993460		; ccccccccH
	mov	DWORD PTR _this$[ebp], ecx

; 1637 : 		if (this->_Myfirst() != pointer())

	mov	ecx, DWORD PTR _this$[ebp]
	call	?_Myfirst@?$_Vector_alloc@U?$_Vec_base_types@PAVFuzzyTerm@@V?$allocator@PAVFuzzyTerm@@@std@@@std@@@std@@QAEAAPAPAVFuzzyTerm@@XZ ; std::_Vector_alloc<std::_Vec_base_types<FuzzyTerm *,std::allocator<FuzzyTerm *> > >::_Myfirst
	cmp	DWORD PTR [eax], 0
	je	$LN1@Tidy

; 1638 : 			{	// something to free, destroy and deallocate it
; 1639 : 			this->_Orphan_all();

	mov	ecx, DWORD PTR _this$[ebp]
	call	?_Orphan_all@?$_Vector_alloc@U?$_Vec_base_types@PAVFuzzyTerm@@V?$allocator@PAVFuzzyTerm@@@std@@@std@@@std@@QAEXXZ ; std::_Vector_alloc<std::_Vec_base_types<FuzzyTerm *,std::allocator<FuzzyTerm *> > >::_Orphan_all

; 1640 : 			_Destroy(this->_Myfirst(), this->_Mylast());

	mov	ecx, DWORD PTR _this$[ebp]
